ARM GAS  /tmp/ccQGrZAX.s 			page 1


   1              		.cpu cortex-m7
   2              		.arch armv7e-m
   3              		.fpu fpv5-d16
   4              		.eabi_attribute 28, 1
   5              		.eabi_attribute 20, 1
   6              		.eabi_attribute 21, 1
   7              		.eabi_attribute 23, 3
   8              		.eabi_attribute 24, 1
   9              		.eabi_attribute 25, 1
  10              		.eabi_attribute 26, 1
  11              		.eabi_attribute 30, 2
  12              		.eabi_attribute 34, 1
  13              		.eabi_attribute 18, 4
  14              		.file	"PassthruExample.cpp"
  15              		.text
  16              	.Ltext0:
  17              		.cfi_sections	.debug_frame
  18              		.section	.text._ZN5daisy8patch_sm12DaisyPatchSMD2Ev,"axG",%progbits,_ZN5daisy8patch_sm12DaisyPatch
  19              		.align	1
  20              		.p2align 2,,3
  21              		.weak	_ZN5daisy8patch_sm12DaisyPatchSMD2Ev
  22              		.syntax unified
  23              		.thumb
  24              		.thumb_func
  26              	_ZN5daisy8patch_sm12DaisyPatchSMD2Ev:
  27              	.LVL0:
  28              	.LFB2556:
  29              		.file 1 "../DaisyExamples/libDaisy//src/daisy_patch_sm.h"
   1:../DaisyExamples/libDaisy//src/daisy_patch_sm.h **** #pragma once
   2:../DaisyExamples/libDaisy//src/daisy_patch_sm.h **** 
   3:../DaisyExamples/libDaisy//src/daisy_patch_sm.h **** #include "daisy.h"
   4:../DaisyExamples/libDaisy//src/daisy_patch_sm.h **** 
   5:../DaisyExamples/libDaisy//src/daisy_patch_sm.h **** namespace daisy
   6:../DaisyExamples/libDaisy//src/daisy_patch_sm.h **** {
   7:../DaisyExamples/libDaisy//src/daisy_patch_sm.h **** namespace patch_sm
   8:../DaisyExamples/libDaisy//src/daisy_patch_sm.h **** {
   9:../DaisyExamples/libDaisy//src/daisy_patch_sm.h ****     /** Accessors for the Analog Controls. 
  10:../DaisyExamples/libDaisy//src/daisy_patch_sm.h ****      *  These cover the 8x Bipolar CV inputs
  11:../DaisyExamples/libDaisy//src/daisy_patch_sm.h ****      *  as well as the 4x 0-3V3 ADC inputs on
  12:../DaisyExamples/libDaisy//src/daisy_patch_sm.h ****      *  the hardware 
  13:../DaisyExamples/libDaisy//src/daisy_patch_sm.h ****      * 
  14:../DaisyExamples/libDaisy//src/daisy_patch_sm.h ****      *  When reading a value with DaisyPatchSM::GetAdcValue()
  15:../DaisyExamples/libDaisy//src/daisy_patch_sm.h ****      * 
  16:../DaisyExamples/libDaisy//src/daisy_patch_sm.h ****      *  patch.GetAdcValue(patch_sm::CV_1);
  17:../DaisyExamples/libDaisy//src/daisy_patch_sm.h ****      */
  18:../DaisyExamples/libDaisy//src/daisy_patch_sm.h ****     enum
  19:../DaisyExamples/libDaisy//src/daisy_patch_sm.h ****     {
  20:../DaisyExamples/libDaisy//src/daisy_patch_sm.h ****         CV_1 = 0,
  21:../DaisyExamples/libDaisy//src/daisy_patch_sm.h ****         CV_2,
  22:../DaisyExamples/libDaisy//src/daisy_patch_sm.h ****         CV_3,
  23:../DaisyExamples/libDaisy//src/daisy_patch_sm.h ****         CV_4,
  24:../DaisyExamples/libDaisy//src/daisy_patch_sm.h ****         CV_5,
  25:../DaisyExamples/libDaisy//src/daisy_patch_sm.h ****         CV_6,
  26:../DaisyExamples/libDaisy//src/daisy_patch_sm.h ****         CV_7,
  27:../DaisyExamples/libDaisy//src/daisy_patch_sm.h ****         CV_8,
  28:../DaisyExamples/libDaisy//src/daisy_patch_sm.h ****         ADC_9,
  29:../DaisyExamples/libDaisy//src/daisy_patch_sm.h ****         ADC_10,
ARM GAS  /tmp/ccQGrZAX.s 			page 2


  30:../DaisyExamples/libDaisy//src/daisy_patch_sm.h ****         ADC_11,
  31:../DaisyExamples/libDaisy//src/daisy_patch_sm.h ****         ADC_12,
  32:../DaisyExamples/libDaisy//src/daisy_patch_sm.h ****         ADC_LAST,
  33:../DaisyExamples/libDaisy//src/daisy_patch_sm.h ****     };
  34:../DaisyExamples/libDaisy//src/daisy_patch_sm.h **** 
  35:../DaisyExamples/libDaisy//src/daisy_patch_sm.h ****     /** Enum for addressing the CV Outputs via the WriteCvOut function. */
  36:../DaisyExamples/libDaisy//src/daisy_patch_sm.h ****     enum
  37:../DaisyExamples/libDaisy//src/daisy_patch_sm.h ****     {
  38:../DaisyExamples/libDaisy//src/daisy_patch_sm.h ****         CV_OUT_BOTH = 0,
  39:../DaisyExamples/libDaisy//src/daisy_patch_sm.h ****         CV_OUT_1,
  40:../DaisyExamples/libDaisy//src/daisy_patch_sm.h ****         CV_OUT_2,
  41:../DaisyExamples/libDaisy//src/daisy_patch_sm.h ****     };
  42:../DaisyExamples/libDaisy//src/daisy_patch_sm.h **** 
  43:../DaisyExamples/libDaisy//src/daisy_patch_sm.h **** 
  44:../DaisyExamples/libDaisy//src/daisy_patch_sm.h ****     /** @brief Board support file for DaisyPatchSM hardware
  45:../DaisyExamples/libDaisy//src/daisy_patch_sm.h ****      *  @author shensley
  46:../DaisyExamples/libDaisy//src/daisy_patch_sm.h ****      *  @ingroup boards
  47:../DaisyExamples/libDaisy//src/daisy_patch_sm.h ****      * 
  48:../DaisyExamples/libDaisy//src/daisy_patch_sm.h ****      *  Daisy Patch SM is a complete Eurorack module DSP engine.
  49:../DaisyExamples/libDaisy//src/daisy_patch_sm.h ****      *  Based on the Daisy Seed, with circuits added for 
  50:../DaisyExamples/libDaisy//src/daisy_patch_sm.h ****      *  interfacing directly with eurorack modular synthesizers.
  51:../DaisyExamples/libDaisy//src/daisy_patch_sm.h ****      */
  52:../DaisyExamples/libDaisy//src/daisy_patch_sm.h ****     class DaisyPatchSM
  53:../DaisyExamples/libDaisy//src/daisy_patch_sm.h ****     {
  54:../DaisyExamples/libDaisy//src/daisy_patch_sm.h ****       public:
  55:../DaisyExamples/libDaisy//src/daisy_patch_sm.h ****         /** Helper for mapping pins, and accessing them using the `GetPin` function */
  56:../DaisyExamples/libDaisy//src/daisy_patch_sm.h ****         enum class PinBank
  57:../DaisyExamples/libDaisy//src/daisy_patch_sm.h ****         {
  58:../DaisyExamples/libDaisy//src/daisy_patch_sm.h ****             A,
  59:../DaisyExamples/libDaisy//src/daisy_patch_sm.h ****             B,
  60:../DaisyExamples/libDaisy//src/daisy_patch_sm.h ****             C,
  61:../DaisyExamples/libDaisy//src/daisy_patch_sm.h ****             D
  62:../DaisyExamples/libDaisy//src/daisy_patch_sm.h ****         };
  63:../DaisyExamples/libDaisy//src/daisy_patch_sm.h **** 
  64:../DaisyExamples/libDaisy//src/daisy_patch_sm.h ****         DaisyPatchSM() {}
  65:../DaisyExamples/libDaisy//src/daisy_patch_sm.h ****         ~DaisyPatchSM() {}
  30              		.loc 1 65 9 view -0
  31              		.cfi_startproc
  32              		@ args = 0, pretend = 0, frame = 0
  33              		@ frame_needed = 0, uses_anonymous_args = 0
  34              		@ link register save eliminated.
  35              	.LBB177:
  36              	.LBI177:
  37              		.file 2 "../DaisyExamples/libDaisy//src/hid/gatein.h"
   1:../DaisyExamples/libDaisy//src/hid/gatein.h **** #pragma once
   2:../DaisyExamples/libDaisy//src/hid/gatein.h **** #ifndef DSY_GATEIN_H
   3:../DaisyExamples/libDaisy//src/hid/gatein.h **** #define DSY_GATEIN_H
   4:../DaisyExamples/libDaisy//src/hid/gatein.h **** #include "per/gpio.h"
   5:../DaisyExamples/libDaisy//src/hid/gatein.h **** 
   6:../DaisyExamples/libDaisy//src/hid/gatein.h **** namespace daisy
   7:../DaisyExamples/libDaisy//src/hid/gatein.h **** {
   8:../DaisyExamples/libDaisy//src/hid/gatein.h **** /**
   9:../DaisyExamples/libDaisy//src/hid/gatein.h ****    @brief Generic Class for handling gate inputs through GPIO.
  10:../DaisyExamples/libDaisy//src/hid/gatein.h ****    @author Stephen Hensley
  11:../DaisyExamples/libDaisy//src/hid/gatein.h ****    @date    March 2020
  12:../DaisyExamples/libDaisy//src/hid/gatein.h ****    @ingroup controls
  13:../DaisyExamples/libDaisy//src/hid/gatein.h **** */
ARM GAS  /tmp/ccQGrZAX.s 			page 3


  14:../DaisyExamples/libDaisy//src/hid/gatein.h **** class GateIn
  15:../DaisyExamples/libDaisy//src/hid/gatein.h **** {
  16:../DaisyExamples/libDaisy//src/hid/gatein.h ****   public:
  17:../DaisyExamples/libDaisy//src/hid/gatein.h ****     /** GateIn Constructor */
  18:../DaisyExamples/libDaisy//src/hid/gatein.h ****     GateIn() {}
  19:../DaisyExamples/libDaisy//src/hid/gatein.h **** 
  20:../DaisyExamples/libDaisy//src/hid/gatein.h ****     /** GateIn Destructor */
  21:../DaisyExamples/libDaisy//src/hid/gatein.h ****     ~GateIn() {}
  38              		.loc 2 21 5 view .LVU1
  39              		.loc 2 21 5 is_stmt 0 view .LVU2
  40              	.LBE177:
  41              	.LBB178:
  42              	.LBI178:
  43              		.loc 2 21 5 is_stmt 1 view .LVU3
  44              		.loc 2 21 5 is_stmt 0 view .LVU4
  45              	.LBE178:
  46              	.LBB179:
  47              	.LBI179:
  48              		.file 3 "../DaisyExamples/libDaisy//src/dev/codec_pcm3060.h"
   1:../DaisyExamples/libDaisy//src/dev/codec_pcm3060.h **** #pragma once
   2:../DaisyExamples/libDaisy//src/dev/codec_pcm3060.h **** #ifndef DSY_CODEC_PCM3060_H
   3:../DaisyExamples/libDaisy//src/dev/codec_pcm3060.h **** #define DSY_CODEC_PCM3060_H
   4:../DaisyExamples/libDaisy//src/dev/codec_pcm3060.h **** #include "per/i2c.h"
   5:../DaisyExamples/libDaisy//src/dev/codec_pcm3060.h **** namespace daisy
   6:../DaisyExamples/libDaisy//src/dev/codec_pcm3060.h **** {
   7:../DaisyExamples/libDaisy//src/dev/codec_pcm3060.h **** /**
   8:../DaisyExamples/libDaisy//src/dev/codec_pcm3060.h ****  * @brief Driver for the TI PCM3060 Audio Codec.
   9:../DaisyExamples/libDaisy//src/dev/codec_pcm3060.h ****  * @addtogroup codec
  10:../DaisyExamples/libDaisy//src/dev/codec_pcm3060.h ****  * 
  11:../DaisyExamples/libDaisy//src/dev/codec_pcm3060.h ****  * For now this is a limited interface that uses I2C to communicate with the PCM3060
  12:../DaisyExamples/libDaisy//src/dev/codec_pcm3060.h ****  * The device can also be accessed with SPI, which is not yet supported.
  13:../DaisyExamples/libDaisy//src/dev/codec_pcm3060.h ****  * 
  14:../DaisyExamples/libDaisy//src/dev/codec_pcm3060.h ****  * For now all registers are set to their defaults, and the Init function will 
  15:../DaisyExamples/libDaisy//src/dev/codec_pcm3060.h ****  * perform a MRST and SRST before setting the format to 24bit LJ, and disabling 
  16:../DaisyExamples/libDaisy//src/dev/codec_pcm3060.h ****  * power save for both the ADC and DAC.
  17:../DaisyExamples/libDaisy//src/dev/codec_pcm3060.h ****  *
  18:../DaisyExamples/libDaisy//src/dev/codec_pcm3060.h ****  */
  19:../DaisyExamples/libDaisy//src/dev/codec_pcm3060.h **** class Pcm3060
  20:../DaisyExamples/libDaisy//src/dev/codec_pcm3060.h **** {
  21:../DaisyExamples/libDaisy//src/dev/codec_pcm3060.h ****   public:
  22:../DaisyExamples/libDaisy//src/dev/codec_pcm3060.h ****     enum class Result
  23:../DaisyExamples/libDaisy//src/dev/codec_pcm3060.h ****     {
  24:../DaisyExamples/libDaisy//src/dev/codec_pcm3060.h ****         OK,
  25:../DaisyExamples/libDaisy//src/dev/codec_pcm3060.h ****         ERR,
  26:../DaisyExamples/libDaisy//src/dev/codec_pcm3060.h ****     };
  27:../DaisyExamples/libDaisy//src/dev/codec_pcm3060.h **** 
  28:../DaisyExamples/libDaisy//src/dev/codec_pcm3060.h ****     Pcm3060() {}
  29:../DaisyExamples/libDaisy//src/dev/codec_pcm3060.h ****     ~Pcm3060() {}
  49              		.loc 3 29 5 is_stmt 1 view .LVU5
  50              		.loc 3 29 5 is_stmt 0 view .LVU6
  51              	.LBE179:
  52              	.LBB180:
  53              	.LBI180:
  54              		.file 4 "../DaisyExamples/libDaisy//src/hid/usb.h"
   1:../DaisyExamples/libDaisy//src/hid/usb.h **** #pragma once
   2:../DaisyExamples/libDaisy//src/hid/usb.h **** #ifndef DSY_HID_USB_H
   3:../DaisyExamples/libDaisy//src/hid/usb.h **** #define DSY_HID_USB_H
ARM GAS  /tmp/ccQGrZAX.s 			page 4


   4:../DaisyExamples/libDaisy//src/hid/usb.h **** #include <stdint.h>
   5:../DaisyExamples/libDaisy//src/hid/usb.h **** #include <stdlib.h>
   6:../DaisyExamples/libDaisy//src/hid/usb.h **** 
   7:../DaisyExamples/libDaisy//src/hid/usb.h **** namespace daisy
   8:../DaisyExamples/libDaisy//src/hid/usb.h **** /** @addtogroup human_interface
   9:../DaisyExamples/libDaisy//src/hid/usb.h ****     @{
  10:../DaisyExamples/libDaisy//src/hid/usb.h **** */
  11:../DaisyExamples/libDaisy//src/hid/usb.h **** 
  12:../DaisyExamples/libDaisy//src/hid/usb.h **** {
  13:../DaisyExamples/libDaisy//src/hid/usb.h **** /** 
  14:../DaisyExamples/libDaisy//src/hid/usb.h ****     @brief Interface for initializing and using the USB Peripherals on the daisy
  15:../DaisyExamples/libDaisy//src/hid/usb.h ****     @author Stephen Hensley
  16:../DaisyExamples/libDaisy//src/hid/usb.h ****     @date December 2019
  17:../DaisyExamples/libDaisy//src/hid/usb.h **** */
  18:../DaisyExamples/libDaisy//src/hid/usb.h **** class UsbHandle
  19:../DaisyExamples/libDaisy//src/hid/usb.h **** {
  20:../DaisyExamples/libDaisy//src/hid/usb.h ****   public:
  21:../DaisyExamples/libDaisy//src/hid/usb.h ****     /** Return values for USBHandle Functions */
  22:../DaisyExamples/libDaisy//src/hid/usb.h ****     enum class Result
  23:../DaisyExamples/libDaisy//src/hid/usb.h ****     {
  24:../DaisyExamples/libDaisy//src/hid/usb.h ****         OK,
  25:../DaisyExamples/libDaisy//src/hid/usb.h ****         ERR,
  26:../DaisyExamples/libDaisy//src/hid/usb.h ****     };
  27:../DaisyExamples/libDaisy//src/hid/usb.h **** 
  28:../DaisyExamples/libDaisy//src/hid/usb.h ****     /** Specified which of the two USB Peripherals to initialize. */
  29:../DaisyExamples/libDaisy//src/hid/usb.h ****     enum UsbPeriph
  30:../DaisyExamples/libDaisy//src/hid/usb.h ****     {
  31:../DaisyExamples/libDaisy//src/hid/usb.h ****         FS_INTERNAL, /**< Internal pin */
  32:../DaisyExamples/libDaisy//src/hid/usb.h ****         FS_EXTERNAL, /**< FS External D+ pin is Pin 38 (GPIO32). FS External D- pin is Pin 37 (GPIO
  33:../DaisyExamples/libDaisy//src/hid/usb.h ****         FS_BOTH,     /**< Both */
  34:../DaisyExamples/libDaisy//src/hid/usb.h ****     };
  35:../DaisyExamples/libDaisy//src/hid/usb.h **** 
  36:../DaisyExamples/libDaisy//src/hid/usb.h **** 
  37:../DaisyExamples/libDaisy//src/hid/usb.h ****     /** Function called upon reception of a buffer */
  38:../DaisyExamples/libDaisy//src/hid/usb.h ****     typedef void (*ReceiveCallback)(uint8_t* buff, uint32_t* len);
  39:../DaisyExamples/libDaisy//src/hid/usb.h **** 
  40:../DaisyExamples/libDaisy//src/hid/usb.h ****     UsbHandle() {}
  41:../DaisyExamples/libDaisy//src/hid/usb.h **** 
  42:../DaisyExamples/libDaisy//src/hid/usb.h ****     ~UsbHandle() {}
  55              		.loc 4 42 5 is_stmt 1 view .LVU7
  56              		.loc 4 42 5 is_stmt 0 view .LVU8
  57              	.LBE180:
  58              	.LBB181:
  59              	.LBI181:
  60              		.file 5 "../DaisyExamples/libDaisy//src/per/adc.h"
   1:../DaisyExamples/libDaisy//src/per/adc.h **** #pragma once
   2:../DaisyExamples/libDaisy//src/per/adc.h **** #ifndef DSY_ADC_H
   3:../DaisyExamples/libDaisy//src/per/adc.h **** #define DSY_ADC_H /**< Macro */
   4:../DaisyExamples/libDaisy//src/per/adc.h **** #include <stdint.h>
   5:../DaisyExamples/libDaisy//src/per/adc.h **** #include <stdlib.h>
   6:../DaisyExamples/libDaisy//src/per/adc.h **** #include "daisy_core.h"
   7:../DaisyExamples/libDaisy//src/per/adc.h **** #include "per/gpio.h"
   8:../DaisyExamples/libDaisy//src/per/adc.h **** 
   9:../DaisyExamples/libDaisy//src/per/adc.h **** #define DSY_ADC_MAX_CHANNELS 16 /**< Maximum number of ADC channels */
  10:../DaisyExamples/libDaisy//src/per/adc.h **** 
  11:../DaisyExamples/libDaisy//src/per/adc.h **** namespace daisy
  12:../DaisyExamples/libDaisy//src/per/adc.h **** {
ARM GAS  /tmp/ccQGrZAX.s 			page 5


  13:../DaisyExamples/libDaisy//src/per/adc.h **** /** @addtogroup per_analog
  14:../DaisyExamples/libDaisy//src/per/adc.h ****     @{
  15:../DaisyExamples/libDaisy//src/per/adc.h **** */
  16:../DaisyExamples/libDaisy//src/per/adc.h **** 
  17:../DaisyExamples/libDaisy//src/per/adc.h **** /* While there may not be many configuration options here,
  18:../DaisyExamples/libDaisy//src/per/adc.h **** using a struct like this allows us to add more configuration
  19:../DaisyExamples/libDaisy//src/per/adc.h **** later without breaking existing functionality.
  20:../DaisyExamples/libDaisy//src/per/adc.h **** */
  21:../DaisyExamples/libDaisy//src/per/adc.h **** 
  22:../DaisyExamples/libDaisy//src/per/adc.h **** /** @brief   Configuration Structure for an ADC Channel 
  23:../DaisyExamples/libDaisy//src/per/adc.h ****  *  @details This can be used to configure a a single input, 
  24:../DaisyExamples/libDaisy//src/per/adc.h ****  *           or a multiplexed input, allowing up to 8 inputs on 
  25:../DaisyExamples/libDaisy//src/per/adc.h ****  *           one channel.
  26:../DaisyExamples/libDaisy//src/per/adc.h ****  *  @note    Sharing data lines to multiple muxes _is_ possible, but
  27:../DaisyExamples/libDaisy//src/per/adc.h ****  *           each channel sharing data lines must be set to the maximum
  28:../DaisyExamples/libDaisy//src/per/adc.h ****  *           number of channels, even if some multiplexers have fewer
  29:../DaisyExamples/libDaisy//src/per/adc.h ****  *           inputs connected.
  30:../DaisyExamples/libDaisy//src/per/adc.h **** */
  31:../DaisyExamples/libDaisy//src/per/adc.h **** struct AdcChannelConfig
  32:../DaisyExamples/libDaisy//src/per/adc.h **** {
  33:../DaisyExamples/libDaisy//src/per/adc.h ****     /** Which pin to use for multiplexing */
  34:../DaisyExamples/libDaisy//src/per/adc.h ****     enum MuxPin
  35:../DaisyExamples/libDaisy//src/per/adc.h ****     {
  36:../DaisyExamples/libDaisy//src/per/adc.h ****         MUX_SEL_0,    /**< & */
  37:../DaisyExamples/libDaisy//src/per/adc.h ****         MUX_SEL_1,    /**< & */
  38:../DaisyExamples/libDaisy//src/per/adc.h ****         MUX_SEL_2,    /**< & */
  39:../DaisyExamples/libDaisy//src/per/adc.h ****         MUX_SEL_LAST, /**< & */
  40:../DaisyExamples/libDaisy//src/per/adc.h ****     };
  41:../DaisyExamples/libDaisy//src/per/adc.h **** 
  42:../DaisyExamples/libDaisy//src/per/adc.h ****     /** \brief per channel conversion speed added to fixed time based on bitdepth, etc. */
  43:../DaisyExamples/libDaisy//src/per/adc.h ****     enum ConversionSpeed
  44:../DaisyExamples/libDaisy//src/per/adc.h ****     {
  45:../DaisyExamples/libDaisy//src/per/adc.h ****         SPEED_1CYCLES_5,
  46:../DaisyExamples/libDaisy//src/per/adc.h ****         SPEED_2CYCLES_5,
  47:../DaisyExamples/libDaisy//src/per/adc.h ****         SPEED_8CYCLES_5,
  48:../DaisyExamples/libDaisy//src/per/adc.h ****         SPEED_16CYCLES_5,
  49:../DaisyExamples/libDaisy//src/per/adc.h ****         SPEED_32CYCLES_5,
  50:../DaisyExamples/libDaisy//src/per/adc.h ****         SPEED_64CYCLES_5,
  51:../DaisyExamples/libDaisy//src/per/adc.h ****         SPEED_387CYCLES_5,
  52:../DaisyExamples/libDaisy//src/per/adc.h ****         SPEED_810CYCLES_5,
  53:../DaisyExamples/libDaisy//src/per/adc.h ****     };
  54:../DaisyExamples/libDaisy//src/per/adc.h **** 
  55:../DaisyExamples/libDaisy//src/per/adc.h ****     /** Initializes a single ADC pin as an ADC. 
  56:../DaisyExamples/libDaisy//src/per/adc.h ****     \param pin Pin to init.
  57:../DaisyExamples/libDaisy//src/per/adc.h ****     \param speed conversion speed for this pin defaults to 8.5 cycles
  58:../DaisyExamples/libDaisy//src/per/adc.h ****      */
  59:../DaisyExamples/libDaisy//src/per/adc.h ****     void InitSingle(dsy_gpio_pin pin, ConversionSpeed speed = SPEED_8CYCLES_5);
  60:../DaisyExamples/libDaisy//src/per/adc.h **** 
  61:../DaisyExamples/libDaisy//src/per/adc.h ****     /** 
  62:../DaisyExamples/libDaisy//src/per/adc.h ****     Initializes a single ADC pin as a Multiplexed ADC.
  63:../DaisyExamples/libDaisy//src/per/adc.h ****     Requires a CD405X Multiplexer connected to the pin.
  64:../DaisyExamples/libDaisy//src/per/adc.h ****     You only need to supply the mux pins that are required,
  65:../DaisyExamples/libDaisy//src/per/adc.h ****     e.g. a 4052 mux would only require mux_0 and mux_1.
  66:../DaisyExamples/libDaisy//src/per/adc.h ****     Internal Callbacks handle the pin addressing.
  67:../DaisyExamples/libDaisy//src/per/adc.h ****     \param adc_pin &
  68:../DaisyExamples/libDaisy//src/per/adc.h ****     \param mux_channels must be 1-8
  69:../DaisyExamples/libDaisy//src/per/adc.h ****     \param mux_0 First mux pin
ARM GAS  /tmp/ccQGrZAX.s 			page 6


  70:../DaisyExamples/libDaisy//src/per/adc.h ****     \param mux_1 Second mux pin
  71:../DaisyExamples/libDaisy//src/per/adc.h ****     \param mux_2 Third mux pin
  72:../DaisyExamples/libDaisy//src/per/adc.h ****     \param speed conversion speed for this pin defaults to 8.5 cycles
  73:../DaisyExamples/libDaisy//src/per/adc.h ****     */
  74:../DaisyExamples/libDaisy//src/per/adc.h ****     void InitMux(dsy_gpio_pin    adc_pin,
  75:../DaisyExamples/libDaisy//src/per/adc.h ****                  size_t          mux_channels,
  76:../DaisyExamples/libDaisy//src/per/adc.h ****                  dsy_gpio_pin    mux_0,
  77:../DaisyExamples/libDaisy//src/per/adc.h ****                  dsy_gpio_pin    mux_1 = {DSY_GPIOX, 0},
  78:../DaisyExamples/libDaisy//src/per/adc.h ****                  dsy_gpio_pin    mux_2 = {DSY_GPIOX, 0},
  79:../DaisyExamples/libDaisy//src/per/adc.h ****                  ConversionSpeed speed = SPEED_8CYCLES_5);
  80:../DaisyExamples/libDaisy//src/per/adc.h **** 
  81:../DaisyExamples/libDaisy//src/per/adc.h ****     dsy_gpio        pin_;                   /**< & */
  82:../DaisyExamples/libDaisy//src/per/adc.h ****     dsy_gpio        mux_pin_[MUX_SEL_LAST]; /**< & */
  83:../DaisyExamples/libDaisy//src/per/adc.h ****     uint8_t         mux_channels_;          /**< & */
  84:../DaisyExamples/libDaisy//src/per/adc.h ****     ConversionSpeed speed_;
  85:../DaisyExamples/libDaisy//src/per/adc.h **** };
  86:../DaisyExamples/libDaisy//src/per/adc.h **** 
  87:../DaisyExamples/libDaisy//src/per/adc.h **** /**
  88:../DaisyExamples/libDaisy//src/per/adc.h ****    @brief Handler for analog to digital conversion
  89:../DaisyExamples/libDaisy//src/per/adc.h **** */
  90:../DaisyExamples/libDaisy//src/per/adc.h **** class AdcHandle
  91:../DaisyExamples/libDaisy//src/per/adc.h **** {
  92:../DaisyExamples/libDaisy//src/per/adc.h ****   public:
  93:../DaisyExamples/libDaisy//src/per/adc.h ****     /** Supported oversampling amounts */
  94:../DaisyExamples/libDaisy//src/per/adc.h ****     enum OverSampling
  95:../DaisyExamples/libDaisy//src/per/adc.h ****     {
  96:../DaisyExamples/libDaisy//src/per/adc.h ****         OVS_NONE, /**< & */
  97:../DaisyExamples/libDaisy//src/per/adc.h ****         OVS_4,    /**< & */
  98:../DaisyExamples/libDaisy//src/per/adc.h ****         OVS_8,    /**< & */
  99:../DaisyExamples/libDaisy//src/per/adc.h ****         OVS_16,   /**< & */
 100:../DaisyExamples/libDaisy//src/per/adc.h ****         OVS_32,   /**< & */
 101:../DaisyExamples/libDaisy//src/per/adc.h ****         OVS_64,   /**< & */
 102:../DaisyExamples/libDaisy//src/per/adc.h ****         OVS_128,  /**< & */
 103:../DaisyExamples/libDaisy//src/per/adc.h ****         OVS_256,  /**< & */
 104:../DaisyExamples/libDaisy//src/per/adc.h ****         OVS_512,  /**< & */
 105:../DaisyExamples/libDaisy//src/per/adc.h ****         OVS_1024, /**< & */
 106:../DaisyExamples/libDaisy//src/per/adc.h ****         OVS_LAST, /**< & */
 107:../DaisyExamples/libDaisy//src/per/adc.h ****     };
 108:../DaisyExamples/libDaisy//src/per/adc.h **** 
 109:../DaisyExamples/libDaisy//src/per/adc.h ****     AdcHandle() {}
 110:../DaisyExamples/libDaisy//src/per/adc.h ****     ~AdcHandle() {}
  61              		.loc 5 110 5 is_stmt 1 view .LVU9
  62              		.loc 5 110 5 is_stmt 0 view .LVU10
  63              	.LBE181:
  64              	.LBB182:
  65              	.LBI182:
  66              		.file 6 "../DaisyExamples/libDaisy//src/hid/audio.h"
   1:../DaisyExamples/libDaisy//src/hid/audio.h **** #ifndef DSY_AUDIO_H
   2:../DaisyExamples/libDaisy//src/hid/audio.h **** #define DSY_AUDIO_H /**< & */
   3:../DaisyExamples/libDaisy//src/hid/audio.h **** 
   4:../DaisyExamples/libDaisy//src/hid/audio.h **** #include "per/sai.h"
   5:../DaisyExamples/libDaisy//src/hid/audio.h **** 
   6:../DaisyExamples/libDaisy//src/hid/audio.h **** namespace daisy
   7:../DaisyExamples/libDaisy//src/hid/audio.h **** {
   8:../DaisyExamples/libDaisy//src/hid/audio.h **** /** @brief Audio Engine Handle
   9:../DaisyExamples/libDaisy//src/hid/audio.h ****  *  @ingroup audio 
  10:../DaisyExamples/libDaisy//src/hid/audio.h ****  *  @details This class allows for higher level access to an audio engine.
ARM GAS  /tmp/ccQGrZAX.s 			page 7


  11:../DaisyExamples/libDaisy//src/hid/audio.h ****  *           If you're using a SOM like the DaisySeed or DaisyPatchSM (or any 
  12:../DaisyExamples/libDaisy//src/hid/audio.h ****  *            board that includes one of those objects) then the intialization
  13:../DaisyExamples/libDaisy//src/hid/audio.h ****  *            is already taken  care of.
  14:../DaisyExamples/libDaisy//src/hid/audio.h ****  *           If you're setting up your own custom hardware, or need to make changes
  15:../DaisyExamples/libDaisy//src/hid/audio.h ****  *           you will have to take the following steps:
  16:../DaisyExamples/libDaisy//src/hid/audio.h ****  *             1. Create and Initialize an SaiHandle or two depending on your requirements
  17:../DaisyExamples/libDaisy//src/hid/audio.h ****  *             2. Initialize the Audio Handle with the desired settings and the Initialized SaiHand
  18:../DaisyExamples/libDaisy//src/hid/audio.h ****  *             3. If the connected codec requires special configuration or initialization, do so
  19:../DaisyExamples/libDaisy//src/hid/audio.h ****  *             4. Write a callback method using either the AudioCallback or the InterleavingAudioCa
  20:../DaisyExamples/libDaisy//src/hid/audio.h ****  *             5. Start the Audio using one of the StartAudio function
  21:../DaisyExamples/libDaisy//src/hid/audio.h ****  */
  22:../DaisyExamples/libDaisy//src/hid/audio.h **** class AudioHandle
  23:../DaisyExamples/libDaisy//src/hid/audio.h **** {
  24:../DaisyExamples/libDaisy//src/hid/audio.h ****   public:
  25:../DaisyExamples/libDaisy//src/hid/audio.h ****     /** Manually configurable details about the Audio Engine */
  26:../DaisyExamples/libDaisy//src/hid/audio.h ****     /** TODO: Figure out how to get samplerate in here. */
  27:../DaisyExamples/libDaisy//src/hid/audio.h ****     struct Config
  28:../DaisyExamples/libDaisy//src/hid/audio.h ****     {
  29:../DaisyExamples/libDaisy//src/hid/audio.h ****         /** number of samples to process per callback */
  30:../DaisyExamples/libDaisy//src/hid/audio.h ****         size_t blocksize;
  31:../DaisyExamples/libDaisy//src/hid/audio.h **** 
  32:../DaisyExamples/libDaisy//src/hid/audio.h ****         /**< Sample rate of audio */
  33:../DaisyExamples/libDaisy//src/hid/audio.h ****         SaiHandle::Config::SampleRate samplerate;
  34:../DaisyExamples/libDaisy//src/hid/audio.h **** 
  35:../DaisyExamples/libDaisy//src/hid/audio.h ****         /** factor for adjustment before and after callback for hardware that may have extra headro
  36:../DaisyExamples/libDaisy//src/hid/audio.h ****         float postgain;
  37:../DaisyExamples/libDaisy//src/hid/audio.h **** 
  38:../DaisyExamples/libDaisy//src/hid/audio.h ****         /** factor for additional one-sided compensation to audio path for hardware that may
  39:../DaisyExamples/libDaisy//src/hid/audio.h ****          *  have unequal input/output ranges
  40:../DaisyExamples/libDaisy//src/hid/audio.h ****          */
  41:../DaisyExamples/libDaisy//src/hid/audio.h ****         float output_compensation;
  42:../DaisyExamples/libDaisy//src/hid/audio.h **** 
  43:../DaisyExamples/libDaisy//src/hid/audio.h ****         /** Sets default values for config struct */
  44:../DaisyExamples/libDaisy//src/hid/audio.h ****         Config()
  45:../DaisyExamples/libDaisy//src/hid/audio.h ****         : blocksize(48),
  46:../DaisyExamples/libDaisy//src/hid/audio.h ****           samplerate(SaiHandle::Config::SampleRate::SAI_48KHZ),
  47:../DaisyExamples/libDaisy//src/hid/audio.h ****           postgain(1.f),
  48:../DaisyExamples/libDaisy//src/hid/audio.h ****           output_compensation(1.f)
  49:../DaisyExamples/libDaisy//src/hid/audio.h ****         {
  50:../DaisyExamples/libDaisy//src/hid/audio.h ****         }
  51:../DaisyExamples/libDaisy//src/hid/audio.h ****     };
  52:../DaisyExamples/libDaisy//src/hid/audio.h **** 
  53:../DaisyExamples/libDaisy//src/hid/audio.h ****     enum class Result
  54:../DaisyExamples/libDaisy//src/hid/audio.h ****     {
  55:../DaisyExamples/libDaisy//src/hid/audio.h ****         OK,
  56:../DaisyExamples/libDaisy//src/hid/audio.h ****         ERR,
  57:../DaisyExamples/libDaisy//src/hid/audio.h ****     };
  58:../DaisyExamples/libDaisy//src/hid/audio.h **** 
  59:../DaisyExamples/libDaisy//src/hid/audio.h ****     /** Non-Interleaving input buffer
  60:../DaisyExamples/libDaisy//src/hid/audio.h ****      * Buffer arranged by float[chn][sample] 
  61:../DaisyExamples/libDaisy//src/hid/audio.h ****      * const so that the user can't modify the input
  62:../DaisyExamples/libDaisy//src/hid/audio.h ****      */
  63:../DaisyExamples/libDaisy//src/hid/audio.h ****     typedef const float* const* InputBuffer;
  64:../DaisyExamples/libDaisy//src/hid/audio.h **** 
  65:../DaisyExamples/libDaisy//src/hid/audio.h ****     /** Non-Interleaving output buffer
  66:../DaisyExamples/libDaisy//src/hid/audio.h ****      * Arranged by float[chn][sample] 
  67:../DaisyExamples/libDaisy//src/hid/audio.h ****      */
ARM GAS  /tmp/ccQGrZAX.s 			page 8


  68:../DaisyExamples/libDaisy//src/hid/audio.h ****     typedef float** OutputBuffer;
  69:../DaisyExamples/libDaisy//src/hid/audio.h **** 
  70:../DaisyExamples/libDaisy//src/hid/audio.h ****     /** Type for a Non-Interleaving audio callback 
  71:../DaisyExamples/libDaisy//src/hid/audio.h ****      * Non-Interleaving audio callbacks in daisy will be of this type
  72:../DaisyExamples/libDaisy//src/hid/audio.h ****      */
  73:../DaisyExamples/libDaisy//src/hid/audio.h ****     typedef void (*AudioCallback)(InputBuffer  in,
  74:../DaisyExamples/libDaisy//src/hid/audio.h ****                                   OutputBuffer out,
  75:../DaisyExamples/libDaisy//src/hid/audio.h ****                                   size_t       size);
  76:../DaisyExamples/libDaisy//src/hid/audio.h **** 
  77:../DaisyExamples/libDaisy//src/hid/audio.h ****     /** Interleaving Input buffer
  78:../DaisyExamples/libDaisy//src/hid/audio.h ****      ** audio is prepared as { L0, R0, L1, R1, . . . LN, RN }]
  79:../DaisyExamples/libDaisy//src/hid/audio.h ****      ** this is const, as the user shouldn't modify it
  80:../DaisyExamples/libDaisy//src/hid/audio.h ****     */
  81:../DaisyExamples/libDaisy//src/hid/audio.h ****     typedef const float* InterleavingInputBuffer;
  82:../DaisyExamples/libDaisy//src/hid/audio.h **** 
  83:../DaisyExamples/libDaisy//src/hid/audio.h ****     /** Interleaving Output buffer 
  84:../DaisyExamples/libDaisy//src/hid/audio.h ****      ** audio is prepared as { L0, R0, L1, R1, . . . LN, RN }
  85:../DaisyExamples/libDaisy//src/hid/audio.h ****     */
  86:../DaisyExamples/libDaisy//src/hid/audio.h ****     typedef float* InterleavingOutputBuffer;
  87:../DaisyExamples/libDaisy//src/hid/audio.h **** 
  88:../DaisyExamples/libDaisy//src/hid/audio.h ****     /** Interleaving Audio Callback 
  89:../DaisyExamples/libDaisy//src/hid/audio.h ****      * Interleaving audio callbacks in daisy must be of this type
  90:../DaisyExamples/libDaisy//src/hid/audio.h ****      */
  91:../DaisyExamples/libDaisy//src/hid/audio.h ****     typedef void (*InterleavingAudioCallback)(InterleavingInputBuffer  in,
  92:../DaisyExamples/libDaisy//src/hid/audio.h ****                                               InterleavingOutputBuffer out,
  93:../DaisyExamples/libDaisy//src/hid/audio.h ****                                               size_t                   size);
  94:../DaisyExamples/libDaisy//src/hid/audio.h **** 
  95:../DaisyExamples/libDaisy//src/hid/audio.h ****     AudioHandle() : pimpl_(nullptr) {}
  96:../DaisyExamples/libDaisy//src/hid/audio.h ****     ~AudioHandle() {}
  67              		.loc 6 96 5 is_stmt 1 view .LVU11
  68              		.loc 6 96 5 is_stmt 0 view .LVU12
  69              	.LBE182:
  70              	.LBB183:
  71              	.LBI183:
  72              		.file 7 "../DaisyExamples/libDaisy//src/sys/system.h"
   1:../DaisyExamples/libDaisy//src/sys/system.h **** #ifndef DSY_SYSTEM_H
   2:../DaisyExamples/libDaisy//src/sys/system.h **** #define DSY_SYSTEM_H
   3:../DaisyExamples/libDaisy//src/sys/system.h **** 
   4:../DaisyExamples/libDaisy//src/sys/system.h **** #ifndef UNIT_TEST // for unit tests, a dummy implementation is provided below
   5:../DaisyExamples/libDaisy//src/sys/system.h **** 
   6:../DaisyExamples/libDaisy//src/sys/system.h **** #include <cstdint>
   7:../DaisyExamples/libDaisy//src/sys/system.h **** #include "per/tim.h"
   8:../DaisyExamples/libDaisy//src/sys/system.h **** 
   9:../DaisyExamples/libDaisy//src/sys/system.h **** namespace daisy
  10:../DaisyExamples/libDaisy//src/sys/system.h **** {
  11:../DaisyExamples/libDaisy//src/sys/system.h **** /** A handle for interacting with the Core System.
  12:../DaisyExamples/libDaisy//src/sys/system.h ****  ** This includes the Clock tree, MPU, global DMA initialization,
  13:../DaisyExamples/libDaisy//src/sys/system.h ****  ** cache handling, and any other necessary global initiailzation
  14:../DaisyExamples/libDaisy//src/sys/system.h ****  **
  15:../DaisyExamples/libDaisy//src/sys/system.h ****  ** @author shensley
  16:../DaisyExamples/libDaisy//src/sys/system.h ****  ** @ingroup system
  17:../DaisyExamples/libDaisy//src/sys/system.h ****  */
  18:../DaisyExamples/libDaisy//src/sys/system.h **** class System
  19:../DaisyExamples/libDaisy//src/sys/system.h **** {
  20:../DaisyExamples/libDaisy//src/sys/system.h ****   public:
  21:../DaisyExamples/libDaisy//src/sys/system.h ****     /** Contains settings for initializing the System */
  22:../DaisyExamples/libDaisy//src/sys/system.h ****     struct Config
ARM GAS  /tmp/ccQGrZAX.s 			page 9


  23:../DaisyExamples/libDaisy//src/sys/system.h ****     {
  24:../DaisyExamples/libDaisy//src/sys/system.h ****         /** Specifies the system clock frequency that feeds APB/AHB clocks, etc. */
  25:../DaisyExamples/libDaisy//src/sys/system.h ****         enum class SysClkFreq
  26:../DaisyExamples/libDaisy//src/sys/system.h ****         {
  27:../DaisyExamples/libDaisy//src/sys/system.h ****             FREQ_400MHZ,
  28:../DaisyExamples/libDaisy//src/sys/system.h ****             FREQ_480MHZ,
  29:../DaisyExamples/libDaisy//src/sys/system.h ****         };
  30:../DaisyExamples/libDaisy//src/sys/system.h **** 
  31:../DaisyExamples/libDaisy//src/sys/system.h ****         /** Method to call on the struct to set to defaults
  32:../DaisyExamples/libDaisy//src/sys/system.h ****          ** CPU Freq set to 400MHz
  33:../DaisyExamples/libDaisy//src/sys/system.h ****          ** Cache Enabled
  34:../DaisyExamples/libDaisy//src/sys/system.h ****          ** */
  35:../DaisyExamples/libDaisy//src/sys/system.h ****         void Defaults()
  36:../DaisyExamples/libDaisy//src/sys/system.h ****         {
  37:../DaisyExamples/libDaisy//src/sys/system.h ****             cpu_freq    = SysClkFreq::FREQ_400MHZ;
  38:../DaisyExamples/libDaisy//src/sys/system.h ****             use_dcache  = true;
  39:../DaisyExamples/libDaisy//src/sys/system.h ****             use_icache  = true;
  40:../DaisyExamples/libDaisy//src/sys/system.h ****             skip_clocks = false;
  41:../DaisyExamples/libDaisy//src/sys/system.h ****         }
  42:../DaisyExamples/libDaisy//src/sys/system.h **** 
  43:../DaisyExamples/libDaisy//src/sys/system.h ****         /** Method to call on the struct to set to boost mode:
  44:../DaisyExamples/libDaisy//src/sys/system.h ****          ** CPU Freq set to 480MHz
  45:../DaisyExamples/libDaisy//src/sys/system.h ****          ** Cache Enabled
  46:../DaisyExamples/libDaisy//src/sys/system.h ****          ** */
  47:../DaisyExamples/libDaisy//src/sys/system.h ****         void Boost()
  48:../DaisyExamples/libDaisy//src/sys/system.h ****         {
  49:../DaisyExamples/libDaisy//src/sys/system.h ****             cpu_freq    = SysClkFreq::FREQ_480MHZ;
  50:../DaisyExamples/libDaisy//src/sys/system.h ****             use_dcache  = true;
  51:../DaisyExamples/libDaisy//src/sys/system.h ****             use_icache  = true;
  52:../DaisyExamples/libDaisy//src/sys/system.h ****             skip_clocks = false;
  53:../DaisyExamples/libDaisy//src/sys/system.h ****         }
  54:../DaisyExamples/libDaisy//src/sys/system.h **** 
  55:../DaisyExamples/libDaisy//src/sys/system.h ****         SysClkFreq cpu_freq;
  56:../DaisyExamples/libDaisy//src/sys/system.h ****         bool       use_dcache;
  57:../DaisyExamples/libDaisy//src/sys/system.h ****         bool       use_icache;
  58:../DaisyExamples/libDaisy//src/sys/system.h ****         bool       skip_clocks;
  59:../DaisyExamples/libDaisy//src/sys/system.h ****     };
  60:../DaisyExamples/libDaisy//src/sys/system.h **** 
  61:../DaisyExamples/libDaisy//src/sys/system.h ****     /** Describes the different regions of memory available to the Daisy */
  62:../DaisyExamples/libDaisy//src/sys/system.h ****     enum MemoryRegion
  63:../DaisyExamples/libDaisy//src/sys/system.h ****     {
  64:../DaisyExamples/libDaisy//src/sys/system.h ****         INTERNAL_FLASH = 0,
  65:../DaisyExamples/libDaisy//src/sys/system.h ****         ITCMRAM,
  66:../DaisyExamples/libDaisy//src/sys/system.h ****         DTCMRAM,
  67:../DaisyExamples/libDaisy//src/sys/system.h ****         SRAM_D1,
  68:../DaisyExamples/libDaisy//src/sys/system.h ****         SRAM_D2,
  69:../DaisyExamples/libDaisy//src/sys/system.h ****         SRAM_D3,
  70:../DaisyExamples/libDaisy//src/sys/system.h ****         SDRAM,
  71:../DaisyExamples/libDaisy//src/sys/system.h ****         QSPI,
  72:../DaisyExamples/libDaisy//src/sys/system.h ****         INVALID_ADDRESS,
  73:../DaisyExamples/libDaisy//src/sys/system.h ****     };
  74:../DaisyExamples/libDaisy//src/sys/system.h **** 
  75:../DaisyExamples/libDaisy//src/sys/system.h ****     /** Bootloader struct for controlling bootloading parameters */
  76:../DaisyExamples/libDaisy//src/sys/system.h ****     struct BootInfo
  77:../DaisyExamples/libDaisy//src/sys/system.h ****     {
  78:../DaisyExamples/libDaisy//src/sys/system.h ****         enum class Type : uint32_t
  79:../DaisyExamples/libDaisy//src/sys/system.h ****         {
ARM GAS  /tmp/ccQGrZAX.s 			page 10


  80:../DaisyExamples/libDaisy//src/sys/system.h ****             INVALID      = 0x00000000,
  81:../DaisyExamples/libDaisy//src/sys/system.h ****             JUMP         = 0xDEADBEEF,
  82:../DaisyExamples/libDaisy//src/sys/system.h ****             SKIP_TIMEOUT = 0x5AFEB007,
  83:../DaisyExamples/libDaisy//src/sys/system.h ****             INF_TIMEOUT  = 0xB0074EFA,
  84:../DaisyExamples/libDaisy//src/sys/system.h ****         } status;
  85:../DaisyExamples/libDaisy//src/sys/system.h ****         uint32_t data;
  86:../DaisyExamples/libDaisy//src/sys/system.h ****         enum class Version : uint32_t
  87:../DaisyExamples/libDaisy//src/sys/system.h ****         {
  88:../DaisyExamples/libDaisy//src/sys/system.h ****             LT_v6_0 = 0, // Less than v6.0
  89:../DaisyExamples/libDaisy//src/sys/system.h ****             NONE,        // No bootloader present
  90:../DaisyExamples/libDaisy//src/sys/system.h ****             v6_0,        // v6.0
  91:../DaisyExamples/libDaisy//src/sys/system.h ****             v6_1,        // v6.1 or greater
  92:../DaisyExamples/libDaisy//src/sys/system.h ****             LAST
  93:../DaisyExamples/libDaisy//src/sys/system.h ****         } version;
  94:../DaisyExamples/libDaisy//src/sys/system.h ****     };
  95:../DaisyExamples/libDaisy//src/sys/system.h **** 
  96:../DaisyExamples/libDaisy//src/sys/system.h ****     System() {}
  97:../DaisyExamples/libDaisy//src/sys/system.h ****     ~System() {}
  73              		.loc 7 97 5 is_stmt 1 view .LVU13
  74              		.loc 7 97 5 is_stmt 0 view .LVU14
  75              	.LBE183:
  76              		.loc 1 65 26 view .LVU15
  77 0000 7047     		bx	lr
  78              		.cfi_endproc
  79              	.LFE2556:
  81              		.weak	_ZN5daisy8patch_sm12DaisyPatchSMD1Ev
  82              		.thumb_set _ZN5daisy8patch_sm12DaisyPatchSMD1Ev,_ZN5daisy8patch_sm12DaisyPatchSMD2Ev
  83 0002 00BF     		.section	.text._Z13AudioCallbackPKPKfPPfj,"ax",%progbits
  84              		.align	1
  85              		.p2align 2,,3
  86              		.global	_Z13AudioCallbackPKPKfPPfj
  87              		.syntax unified
  88              		.thumb
  89              		.thumb_func
  91              	_Z13AudioCallbackPKPKfPPfj:
  92              	.LVL1:
  93              	.LFB4686:
  94              		.file 8 "PassthruExample.cpp"
   1:PassthruExample.cpp **** #include "daisy_patch_sm.h"
   2:PassthruExample.cpp **** #include "daisysp.h"
   3:PassthruExample.cpp **** 
   4:PassthruExample.cpp **** /** These are namespaces for the daisy libraries.
   5:PassthruExample.cpp ****  *  These lines allow us to omit the "daisy::" and "daisysp::" before
   6:PassthruExample.cpp ****  * referencing modules, and functions within the daisy libraries.
   7:PassthruExample.cpp ****  */
   8:PassthruExample.cpp **** using namespace daisy;
   9:PassthruExample.cpp **** using namespace patch_sm;
  10:PassthruExample.cpp **** using namespace daisysp;
  11:PassthruExample.cpp **** 
  12:PassthruExample.cpp **** /** Our hardware board class handles the interface to the actual DaisyPatchSM
  13:PassthruExample.cpp ****  * hardware. */
  14:PassthruExample.cpp **** DaisyPatchSM patch;
  15:PassthruExample.cpp **** 
  16:PassthruExample.cpp **** /** Callback for processing and synthesizing audio
  17:PassthruExample.cpp ****  *
  18:PassthruExample.cpp ****  *  The audio buffers are arranged as arrays of samples for each channel.
  19:PassthruExample.cpp ****  *  For example, to access the left input you would use:
ARM GAS  /tmp/ccQGrZAX.s 			page 11


  20:PassthruExample.cpp ****  *    in[0][n]
  21:PassthruExample.cpp ****  *  where n is the specific sample.
  22:PassthruExample.cpp ****  *  There are "size" samples in each array.
  23:PassthruExample.cpp ****  *
  24:PassthruExample.cpp ****  *  The default size is very small (just 4 samples per channel). This means the
  25:PassthruExample.cpp ****  * callback is being called at 16kHz.
  26:PassthruExample.cpp ****  *
  27:PassthruExample.cpp ****  *  This size is acceptable for many applications, and provides an extremely low
  28:PassthruExample.cpp ****  * latency from input to output. However, you can change this size by calling
  29:PassthruExample.cpp ****  * patch.SetAudioBlockSize(desired_size). When running complex DSP it can be more
  30:PassthruExample.cpp ****  * efficient to do the processing on larger chunks at a time.
  31:PassthruExample.cpp ****  *
  32:PassthruExample.cpp ****  */
  33:PassthruExample.cpp **** void AudioCallback(AudioHandle::InputBuffer  in,
  34:PassthruExample.cpp ****                    AudioHandle::OutputBuffer out,
  35:PassthruExample.cpp ****                    size_t                    size)
  36:PassthruExample.cpp **** {
  95              		.loc 8 36 1 is_stmt 1 view -0
  96              		.cfi_startproc
  97              		@ args = 0, pretend = 0, frame = 0
  98              		@ frame_needed = 0, uses_anonymous_args = 0
  99              		@ link register save eliminated.
  37:PassthruExample.cpp ****     /** The easiest way to do pass thru is to simply copy the input to the output
  38:PassthruExample.cpp ****    * In C++ the standard way of doing this is with std::copy. However, those
  39:PassthruExample.cpp ****    * familliar with C can use memcpy. A simple loop is also a good way to do
  40:PassthruExample.cpp ****    * this.
  41:PassthruExample.cpp ****    *
  42:PassthruExample.cpp ****    * Since you'll most likely want to be doing something between the input,
  43:PassthruExample.cpp ****    *  and the output, and not just passing it through we'll demonstrate doing
  44:PassthruExample.cpp ****    *  so with a for loop.
  45:PassthruExample.cpp ****    */
  46:PassthruExample.cpp ****     for(size_t i = 0; i < size; i++)
 100              		.loc 8 46 5 view .LVU17
 101              	.LBB184:
 102              		.loc 8 46 25 view .LVU18
 103 0000 9AB1     		cbz	r2, .L11
 104 0002 0368     		ldr	r3, [r0]
 105 0004 4068     		ldr	r0, [r0, #4]
 106              	.LVL2:
 107              		.loc 8 46 25 is_stmt 0 view .LVU19
 108 0006 03EB820C 		add	ip, r3, r2, lsl #2
 109              	.LBE184:
  36:PassthruExample.cpp ****     /** The easiest way to do pass thru is to simply copy the input to the output
 110              		.loc 8 36 1 view .LVU20
 111 000a 10B4     		push	{r4}
 112              		.cfi_def_cfa_offset 4
 113              		.cfi_offset 4, -4
 114 000c 0C68     		ldr	r4, [r1]
 115 000e 4968     		ldr	r1, [r1, #4]
 116              	.LVL3:
 117              	.L5:
 118              	.LBB185:
  47:PassthruExample.cpp ****     {
  48:PassthruExample.cpp ****         out[0][i] = in[0][i]; /**< Copy the left input to the left output */
 119              		.loc 8 48 9 is_stmt 1 discriminator 2 view .LVU21
 120              		.loc 8 48 28 is_stmt 0 discriminator 2 view .LVU22
 121 0010 53F8042B 		ldr	r2, [r3], #4	@ float
ARM GAS  /tmp/ccQGrZAX.s 			page 12


 122              		.loc 8 48 19 discriminator 2 view .LVU23
 123 0014 44F8042B 		str	r2, [r4], #4	@ float
  49:PassthruExample.cpp ****         out[1][i] = in[1][i]; /**< Copy the right input to the right output */
 124              		.loc 8 49 9 is_stmt 1 discriminator 2 view .LVU24
  46:PassthruExample.cpp ****     {
 125              		.loc 8 46 25 is_stmt 0 discriminator 2 view .LVU25
 126 0018 6345     		cmp	r3, ip
 127              		.loc 8 49 28 discriminator 2 view .LVU26
 128 001a 50F8042B 		ldr	r2, [r0], #4	@ float
 129              		.loc 8 49 19 discriminator 2 view .LVU27
 130 001e 41F8042B 		str	r2, [r1], #4	@ float
  46:PassthruExample.cpp ****     {
 131              		.loc 8 46 5 is_stmt 1 discriminator 2 view .LVU28
  46:PassthruExample.cpp ****     {
 132              		.loc 8 46 25 discriminator 2 view .LVU29
 133 0022 F5D1     		bne	.L5
 134              	.LBE185:
  50:PassthruExample.cpp ****     }
  51:PassthruExample.cpp **** }
 135              		.loc 8 51 1 is_stmt 0 view .LVU30
 136 0024 5DF8044B 		ldr	r4, [sp], #4
 137              		.cfi_restore 4
 138              		.cfi_def_cfa_offset 0
 139 0028 7047     		bx	lr
 140              	.LVL4:
 141              	.L11:
 142              		.loc 8 51 1 view .LVU31
 143 002a 7047     		bx	lr
 144              		.cfi_endproc
 145              	.LFE4686:
 147              		.section	.text.startup.main,"ax",%progbits
 148              		.align	1
 149              		.p2align 2,,3
 150              		.global	main
 151              		.syntax unified
 152              		.thumb
 153              		.thumb_func
 155              	main:
 156              	.LFB4687:
  52:PassthruExample.cpp **** 
  53:PassthruExample.cpp **** int main(void)
  54:PassthruExample.cpp **** {
 157              		.loc 8 54 1 is_stmt 1 view -0
 158              		.cfi_startproc
 159              		@ Volatile: function does not return.
 160              		@ args = 0, pretend = 0, frame = 0
 161              		@ frame_needed = 0, uses_anonymous_args = 0
  55:PassthruExample.cpp ****     /** Initialize the hardware */
  56:PassthruExample.cpp ****     patch.Init();
 162              		.loc 8 56 5 view .LVU33
 163              		.loc 8 56 15 is_stmt 0 view .LVU34
 164 0000 0448     		ldr	r0, .L17
  54:PassthruExample.cpp ****     /** Initialize the hardware */
 165              		.loc 8 54 1 view .LVU35
 166 0002 08B5     		push	{r3, lr}
 167              		.cfi_def_cfa_offset 8
 168              		.cfi_offset 3, -8
ARM GAS  /tmp/ccQGrZAX.s 			page 13


 169              		.cfi_offset 14, -4
 170              		.loc 8 56 15 view .LVU36
 171 0004 FFF7FEFF 		bl	_ZN5daisy8patch_sm12DaisyPatchSM4InitEv
 172              	.LVL5:
  57:PassthruExample.cpp **** 
  58:PassthruExample.cpp ****     /** Start Processing the audio */
  59:PassthruExample.cpp ****     patch.StartAudio(AudioCallback);
 173              		.loc 8 59 5 is_stmt 1 view .LVU37
 174              		.loc 8 59 21 is_stmt 0 view .LVU38
 175 0008 0349     		ldr	r1, .L17+4
 176 000a 0248     		ldr	r0, .L17
 177 000c FFF7FEFF 		bl	_ZN5daisy8patch_sm12DaisyPatchSM10StartAudioEPFvPKPKfPPfjE
 178              	.LVL6:
 179              	.L15:
  60:PassthruExample.cpp ****     while(1) {}
 180              		.loc 8 60 5 is_stmt 1 discriminator 1 view .LVU39
 181              		.loc 8 60 5 discriminator 1 view .LVU40
 182              		.loc 8 60 5 discriminator 1 view .LVU41
 183              		.loc 8 60 5 discriminator 1 view .LVU42
 184 0010 FEE7     		b	.L15
 185              	.L18:
 186 0012 00BF     		.align	2
 187              	.L17:
 188 0014 00000000 		.word	.LANCHOR0
 189 0018 00000000 		.word	_Z13AudioCallbackPKPKfPPfj
 190              		.cfi_endproc
 191              	.LFE4687:
 193              		.section	.text.startup._GLOBAL__sub_I_patch,"ax",%progbits
 194              		.align	1
 195              		.p2align 2,,3
 196              		.syntax unified
 197              		.thumb
 198              		.thumb_func
 200              	_GLOBAL__sub_I_patch:
 201              	.LFB5250:
  61:PassthruExample.cpp **** }
 202              		.loc 8 61 1 view -0
 203              		.cfi_startproc
 204              		@ args = 0, pretend = 0, frame = 0
 205              		@ frame_needed = 0, uses_anonymous_args = 0
 206              		@ link register save eliminated.
 207              	.LBB230:
 208              	.LBI230:
 209              		.loc 8 61 1 view .LVU44
 210              	.LVL7:
 211              	.LBB231:
 212              	.LBB232:
 213              	.LBI232:
  64:../DaisyExamples/libDaisy//src/daisy_patch_sm.h ****         ~DaisyPatchSM() {}
 214              		.loc 1 64 9 view .LVU45
 215              	.LBB233:
 216              	.LBB234:
 217              	.LBI234:
  96:../DaisyExamples/libDaisy//src/sys/system.h ****     ~System() {}
 218              		.loc 7 96 5 view .LVU46
  96:../DaisyExamples/libDaisy//src/sys/system.h ****     ~System() {}
 219              		.loc 7 96 5 is_stmt 0 view .LVU47
ARM GAS  /tmp/ccQGrZAX.s 			page 14


 220              	.LBE234:
 221              	.LBB235:
 222              	.LBI235:
 223              		.file 9 "../DaisyExamples/libDaisy//src/per/qspi.h"
   1:../DaisyExamples/libDaisy//src/per/qspi.h **** #ifndef DSY_QSPI
   2:../DaisyExamples/libDaisy//src/per/qspi.h **** #define DSY_QSPI /**< Macro */
   3:../DaisyExamples/libDaisy//src/per/qspi.h **** 
   4:../DaisyExamples/libDaisy//src/per/qspi.h **** #ifndef UNIT_TEST // for unit tests, a dummy implementation
   5:../DaisyExamples/libDaisy//src/per/qspi.h **** 
   6:../DaisyExamples/libDaisy//src/per/qspi.h **** #include <cstdint>
   7:../DaisyExamples/libDaisy//src/per/qspi.h **** #include "daisy_core.h" // Added for dsy_gpio_pin typedef
   8:../DaisyExamples/libDaisy//src/per/qspi.h **** 
   9:../DaisyExamples/libDaisy//src/per/qspi.h **** #define DSY_QSPI_TEXT       \
  10:../DaisyExamples/libDaisy//src/per/qspi.h ****     __attribute__((section( \
  11:../DaisyExamples/libDaisy//src/per/qspi.h ****         ".qspiflash_text"))) /**< used for reading memory in memory_mapped mode. */
  12:../DaisyExamples/libDaisy//src/per/qspi.h **** #define DSY_QSPI_DATA       \
  13:../DaisyExamples/libDaisy//src/per/qspi.h ****     __attribute__((section( \
  14:../DaisyExamples/libDaisy//src/per/qspi.h ****         ".qspiflash_data"))) /**< used for reading memory in memory_mapped mode. */
  15:../DaisyExamples/libDaisy//src/per/qspi.h **** #define DSY_QSPI_BSS        \
  16:../DaisyExamples/libDaisy//src/per/qspi.h ****     __attribute__((section( \
  17:../DaisyExamples/libDaisy//src/per/qspi.h ****         ".qspiflash_bss"))) /**< used for reading memory in memory_mapped mode. */
  18:../DaisyExamples/libDaisy//src/per/qspi.h **** 
  19:../DaisyExamples/libDaisy//src/per/qspi.h **** namespace daisy
  20:../DaisyExamples/libDaisy//src/per/qspi.h **** {
  21:../DaisyExamples/libDaisy//src/per/qspi.h **** /** @addtogroup serial
  22:../DaisyExamples/libDaisy//src/per/qspi.h **** @{
  23:../DaisyExamples/libDaisy//src/per/qspi.h **** */
  24:../DaisyExamples/libDaisy//src/per/qspi.h **** 
  25:../DaisyExamples/libDaisy//src/per/qspi.h **** /** 
  26:../DaisyExamples/libDaisy//src/per/qspi.h ****  Driver for QSPI peripheral to interface with external flash memory. \n 
  27:../DaisyExamples/libDaisy//src/per/qspi.h ****     Currently supported QSPI Devices: \n 
  28:../DaisyExamples/libDaisy//src/per/qspi.h ****     * IS25LP080D
  29:../DaisyExamples/libDaisy//src/per/qspi.h **** */
  30:../DaisyExamples/libDaisy//src/per/qspi.h **** class QSPIHandle
  31:../DaisyExamples/libDaisy//src/per/qspi.h **** {
  32:../DaisyExamples/libDaisy//src/per/qspi.h ****   public:
  33:../DaisyExamples/libDaisy//src/per/qspi.h ****     enum Result
  34:../DaisyExamples/libDaisy//src/per/qspi.h ****     {
  35:../DaisyExamples/libDaisy//src/per/qspi.h ****         OK = 0,
  36:../DaisyExamples/libDaisy//src/per/qspi.h ****         ERR
  37:../DaisyExamples/libDaisy//src/per/qspi.h ****     };
  38:../DaisyExamples/libDaisy//src/per/qspi.h **** 
  39:../DaisyExamples/libDaisy//src/per/qspi.h ****     /** Indicates the current status of the module. 
  40:../DaisyExamples/libDaisy//src/per/qspi.h ****          *  Warnings are indicated by a leading W.
  41:../DaisyExamples/libDaisy//src/per/qspi.h ****          *  Errors are indicated by a leading E and cause an immediate exit.
  42:../DaisyExamples/libDaisy//src/per/qspi.h ****          * 
  43:../DaisyExamples/libDaisy//src/per/qspi.h ****          *  \param GOOD - No errors have been reported.
  44:../DaisyExamples/libDaisy//src/per/qspi.h ****          *  \param E_HAL_ERROR - HAL code did not return HAL_OK.
  45:../DaisyExamples/libDaisy//src/per/qspi.h ****          *  \param E_SWITCHING_MODES - An error was encountered while switching QSPI peripheral mod
  46:../DaisyExamples/libDaisy//src/per/qspi.h ****          *  \param E_INVALID_MODE - QSPI should not be written to while the program is executing fr
  47:../DaisyExamples/libDaisy//src/per/qspi.h ****          */
  48:../DaisyExamples/libDaisy//src/per/qspi.h ****     enum Status
  49:../DaisyExamples/libDaisy//src/per/qspi.h ****     {
  50:../DaisyExamples/libDaisy//src/per/qspi.h ****         GOOD = 0,
  51:../DaisyExamples/libDaisy//src/per/qspi.h ****         E_HAL_ERROR,
  52:../DaisyExamples/libDaisy//src/per/qspi.h ****         E_SWITCHING_MODES,
  53:../DaisyExamples/libDaisy//src/per/qspi.h ****         E_INVALID_MODE,
ARM GAS  /tmp/ccQGrZAX.s 			page 15


  54:../DaisyExamples/libDaisy//src/per/qspi.h ****     };
  55:../DaisyExamples/libDaisy//src/per/qspi.h **** 
  56:../DaisyExamples/libDaisy//src/per/qspi.h ****     /** Configuration structure for interfacing with QSPI Driver */
  57:../DaisyExamples/libDaisy//src/per/qspi.h ****     struct Config
  58:../DaisyExamples/libDaisy//src/per/qspi.h ****     {
  59:../DaisyExamples/libDaisy//src/per/qspi.h ****         /** Flash Devices supported. (Both of these are more-or-less the same, just different sizes
  60:../DaisyExamples/libDaisy//src/per/qspi.h ****         enum Device
  61:../DaisyExamples/libDaisy//src/per/qspi.h ****         {
  62:../DaisyExamples/libDaisy//src/per/qspi.h ****             IS25LP080D,  /**< & */
  63:../DaisyExamples/libDaisy//src/per/qspi.h ****             IS25LP064A,  /**< & */
  64:../DaisyExamples/libDaisy//src/per/qspi.h ****             DEVICE_LAST, /**< & */
  65:../DaisyExamples/libDaisy//src/per/qspi.h ****         };
  66:../DaisyExamples/libDaisy//src/per/qspi.h **** 
  67:../DaisyExamples/libDaisy//src/per/qspi.h ****         /** 
  68:../DaisyExamples/libDaisy//src/per/qspi.h ****         Modes of operation.
  69:../DaisyExamples/libDaisy//src/per/qspi.h ****         Memory Mapped mode: QSPI configured so that the QSPI can be
  70:../DaisyExamples/libDaisy//src/per/qspi.h ****         read from starting address 0x90000000. Writing is not
  71:../DaisyExamples/libDaisy//src/per/qspi.h ****         possible in this mode. \n 
  72:../DaisyExamples/libDaisy//src/per/qspi.h ****         Indirect Polling mode: Device driver enabled. 
  73:../DaisyExamples/libDaisy//src/per/qspi.h ****         */
  74:../DaisyExamples/libDaisy//src/per/qspi.h ****         enum Mode
  75:../DaisyExamples/libDaisy//src/per/qspi.h ****         {
  76:../DaisyExamples/libDaisy//src/per/qspi.h ****             MEMORY_MAPPED,    /**< & */
  77:../DaisyExamples/libDaisy//src/per/qspi.h ****             INDIRECT_POLLING, /**< & */
  78:../DaisyExamples/libDaisy//src/per/qspi.h ****             MODE_LAST,
  79:../DaisyExamples/libDaisy//src/per/qspi.h ****         };
  80:../DaisyExamples/libDaisy//src/per/qspi.h **** 
  81:../DaisyExamples/libDaisy//src/per/qspi.h ****         //SCK,  CE# (active low)
  82:../DaisyExamples/libDaisy//src/per/qspi.h ****         struct
  83:../DaisyExamples/libDaisy//src/per/qspi.h ****         {
  84:../DaisyExamples/libDaisy//src/per/qspi.h ****             dsy_gpio_pin io0; /**< & */
  85:../DaisyExamples/libDaisy//src/per/qspi.h ****             dsy_gpio_pin io1; /**< & */
  86:../DaisyExamples/libDaisy//src/per/qspi.h ****             dsy_gpio_pin io2; /**< & */
  87:../DaisyExamples/libDaisy//src/per/qspi.h ****             dsy_gpio_pin io3; /**< & */
  88:../DaisyExamples/libDaisy//src/per/qspi.h ****             dsy_gpio_pin clk; /**< & */
  89:../DaisyExamples/libDaisy//src/per/qspi.h ****             dsy_gpio_pin ncs; /**< & */
  90:../DaisyExamples/libDaisy//src/per/qspi.h ****         } pin_config;
  91:../DaisyExamples/libDaisy//src/per/qspi.h **** 
  92:../DaisyExamples/libDaisy//src/per/qspi.h ****         Device device;
  93:../DaisyExamples/libDaisy//src/per/qspi.h ****         Mode   mode;
  94:../DaisyExamples/libDaisy//src/per/qspi.h ****     };
  95:../DaisyExamples/libDaisy//src/per/qspi.h **** 
  96:../DaisyExamples/libDaisy//src/per/qspi.h ****     /** 
  97:../DaisyExamples/libDaisy//src/per/qspi.h ****         Initializes QSPI peripheral, and Resets, and prepares memory for access.
  98:../DaisyExamples/libDaisy//src/per/qspi.h ****         \param config should be populated with the mode, device and pin_config before calling this 
  99:../DaisyExamples/libDaisy//src/per/qspi.h ****         \return Result::OK or Result::ERR
 100:../DaisyExamples/libDaisy//src/per/qspi.h ****         */
 101:../DaisyExamples/libDaisy//src/per/qspi.h ****     Result Init(const Config& config);
 102:../DaisyExamples/libDaisy//src/per/qspi.h **** 
 103:../DaisyExamples/libDaisy//src/per/qspi.h ****     /** Returns the current config. */
 104:../DaisyExamples/libDaisy//src/per/qspi.h ****     const Config& GetConfig() const;
 105:../DaisyExamples/libDaisy//src/per/qspi.h **** 
 106:../DaisyExamples/libDaisy//src/per/qspi.h ****     // Couldn't this just be called before anything else in init? That
 107:../DaisyExamples/libDaisy//src/per/qspi.h ****     // would make manually calling it unnecessary.
 108:../DaisyExamples/libDaisy//src/per/qspi.h ****     /** 
 109:../DaisyExamples/libDaisy//src/per/qspi.h ****         Deinitializes the peripheral
 110:../DaisyExamples/libDaisy//src/per/qspi.h ****         This should be called before reinitializing QSPI in a different mode.
ARM GAS  /tmp/ccQGrZAX.s 			page 16


 111:../DaisyExamples/libDaisy//src/per/qspi.h ****         \return Result::OK or Result::ERR
 112:../DaisyExamples/libDaisy//src/per/qspi.h ****         */
 113:../DaisyExamples/libDaisy//src/per/qspi.h ****     Result DeInit();
 114:../DaisyExamples/libDaisy//src/per/qspi.h **** 
 115:../DaisyExamples/libDaisy//src/per/qspi.h ****     /** 
 116:../DaisyExamples/libDaisy//src/per/qspi.h ****         Writes a single page to to the specified address on the QSPI chip.
 117:../DaisyExamples/libDaisy//src/per/qspi.h ****         For IS25LP*, page size is 256 bytes.
 118:../DaisyExamples/libDaisy//src/per/qspi.h ****         \param address Address to write to
 119:../DaisyExamples/libDaisy//src/per/qspi.h ****         \param size Buffer size
 120:../DaisyExamples/libDaisy//src/per/qspi.h ****         \param buffer Buffer to write
 121:../DaisyExamples/libDaisy//src/per/qspi.h ****         \return Result::OK or Result::ERR
 122:../DaisyExamples/libDaisy//src/per/qspi.h ****         */
 123:../DaisyExamples/libDaisy//src/per/qspi.h ****     Result WritePage(uint32_t address, uint32_t size, uint8_t* buffer);
 124:../DaisyExamples/libDaisy//src/per/qspi.h **** 
 125:../DaisyExamples/libDaisy//src/per/qspi.h ****     /** 
 126:../DaisyExamples/libDaisy//src/per/qspi.h ****         Writes data in buffer to to the QSPI. Starting at address to address+size 
 127:../DaisyExamples/libDaisy//src/per/qspi.h ****         \param address Address to write to
 128:../DaisyExamples/libDaisy//src/per/qspi.h ****         \param size Buffer size
 129:../DaisyExamples/libDaisy//src/per/qspi.h ****         \param buffer Buffer to write
 130:../DaisyExamples/libDaisy//src/per/qspi.h ****         \return Result::OK or Result::ERR
 131:../DaisyExamples/libDaisy//src/per/qspi.h ****         */
 132:../DaisyExamples/libDaisy//src/per/qspi.h ****     Result Write(uint32_t address, uint32_t size, uint8_t* buffer);
 133:../DaisyExamples/libDaisy//src/per/qspi.h **** 
 134:../DaisyExamples/libDaisy//src/per/qspi.h ****     /** 
 135:../DaisyExamples/libDaisy//src/per/qspi.h ****         Erases the area specified on the chip.
 136:../DaisyExamples/libDaisy//src/per/qspi.h ****         Erasures will happen by 4K, 32K or 64K increments.
 137:../DaisyExamples/libDaisy//src/per/qspi.h ****         Smallest erase possible is 4kB at a time. (on IS25LP*)
 138:../DaisyExamples/libDaisy//src/per/qspi.h ****         \param start_addr Address to begin erasing from
 139:../DaisyExamples/libDaisy//src/per/qspi.h ****         \param end_addr  Address to stop erasing at
 140:../DaisyExamples/libDaisy//src/per/qspi.h ****         \return Result::OK or Result::ERR
 141:../DaisyExamples/libDaisy//src/per/qspi.h ****         */
 142:../DaisyExamples/libDaisy//src/per/qspi.h ****     Result Erase(uint32_t start_addr, uint32_t end_addr);
 143:../DaisyExamples/libDaisy//src/per/qspi.h **** 
 144:../DaisyExamples/libDaisy//src/per/qspi.h ****     /**  
 145:../DaisyExamples/libDaisy//src/per/qspi.h ****          Erases a single sector of the chip.  
 146:../DaisyExamples/libDaisy//src/per/qspi.h ****         TODO: Document the size of this function. 
 147:../DaisyExamples/libDaisy//src/per/qspi.h ****         \param address Address of sector to erase
 148:../DaisyExamples/libDaisy//src/per/qspi.h ****         \return Result::OK or Result::ERR
 149:../DaisyExamples/libDaisy//src/per/qspi.h ****         */
 150:../DaisyExamples/libDaisy//src/per/qspi.h ****     Result EraseSector(uint32_t address);
 151:../DaisyExamples/libDaisy//src/per/qspi.h **** 
 152:../DaisyExamples/libDaisy//src/per/qspi.h ****     /** Returns the current class status. Useful for debugging.
 153:../DaisyExamples/libDaisy//src/per/qspi.h ****      *  \returns Status
 154:../DaisyExamples/libDaisy//src/per/qspi.h ****      */
 155:../DaisyExamples/libDaisy//src/per/qspi.h ****     Status GetStatus();
 156:../DaisyExamples/libDaisy//src/per/qspi.h **** 
 157:../DaisyExamples/libDaisy//src/per/qspi.h ****     /** Returns a pointer to the actual memory used 
 158:../DaisyExamples/libDaisy//src/per/qspi.h ****      *  The memory at this address is read-only
 159:../DaisyExamples/libDaisy//src/per/qspi.h ****      *  to write to it use the Write function.
 160:../DaisyExamples/libDaisy//src/per/qspi.h ****      * 
 161:../DaisyExamples/libDaisy//src/per/qspi.h ****      *  \param offset returns the pointer starting this 
 162:../DaisyExamples/libDaisy//src/per/qspi.h ****      *                many bytes into the memory
 163:../DaisyExamples/libDaisy//src/per/qspi.h ****     */
 164:../DaisyExamples/libDaisy//src/per/qspi.h ****     void* GetData(uint32_t offset = 0);
 165:../DaisyExamples/libDaisy//src/per/qspi.h **** 
 166:../DaisyExamples/libDaisy//src/per/qspi.h ****     QSPIHandle() : pimpl_(nullptr) {}
 224              		.loc 9 166 5 is_stmt 1 view .LVU48
ARM GAS  /tmp/ccQGrZAX.s 			page 17


 225              		.loc 9 166 5 is_stmt 0 view .LVU49
 226              	.LBE235:
 227              	.LBB238:
 228              	.LBI238:
  95:../DaisyExamples/libDaisy//src/hid/audio.h ****     ~AudioHandle() {}
 229              		.loc 6 95 5 is_stmt 1 view .LVU50
  95:../DaisyExamples/libDaisy//src/hid/audio.h ****     ~AudioHandle() {}
 230              		.loc 6 95 5 is_stmt 0 view .LVU51
 231              	.LBE238:
 232              	.LBB241:
 233              	.LBI241:
 109:../DaisyExamples/libDaisy//src/per/adc.h ****     ~AdcHandle() {}
 234              		.loc 5 109 5 is_stmt 1 view .LVU52
 109:../DaisyExamples/libDaisy//src/per/adc.h ****     ~AdcHandle() {}
 235              		.loc 5 109 5 is_stmt 0 view .LVU53
 236              	.LBE241:
 237              	.LBB242:
 238              	.LBI242:
  40:../DaisyExamples/libDaisy//src/hid/usb.h **** 
 239              		.loc 4 40 5 is_stmt 1 view .LVU54
  40:../DaisyExamples/libDaisy//src/hid/usb.h **** 
 240              		.loc 4 40 5 is_stmt 0 view .LVU55
 241              	.LBE242:
 242              	.LBB243:
 243              	.LBI243:
  28:../DaisyExamples/libDaisy//src/dev/codec_pcm3060.h ****     ~Pcm3060() {}
 244              		.loc 3 28 5 is_stmt 1 view .LVU56
 245              	.LBB244:
 246              	.LBB245:
 247              	.LBI245:
 248              		.file 10 "../DaisyExamples/libDaisy//src/per/i2c.h"
   1:../DaisyExamples/libDaisy//src/per/i2c.h **** #pragma once
   2:../DaisyExamples/libDaisy//src/per/i2c.h **** #include "daisy_core.h"
   3:../DaisyExamples/libDaisy//src/per/i2c.h **** 
   4:../DaisyExamples/libDaisy//src/per/i2c.h **** namespace daisy
   5:../DaisyExamples/libDaisy//src/per/i2c.h **** {
   6:../DaisyExamples/libDaisy//src/per/i2c.h **** /** A handle for interacting with an I2C peripheral. This is a dumb
   7:../DaisyExamples/libDaisy//src/per/i2c.h ****  *  gateway that internally points to one of the four I2C peripherals
   8:../DaisyExamples/libDaisy//src/per/i2c.h ****  *  after it was initialised. It can then be copied and passed around.
   9:../DaisyExamples/libDaisy//src/per/i2c.h ****  *  Use an I2CHandle like this:
  10:../DaisyExamples/libDaisy//src/per/i2c.h ****  *  
  11:../DaisyExamples/libDaisy//src/per/i2c.h ****  *      // setup the configuration
  12:../DaisyExamples/libDaisy//src/per/i2c.h ****  *      I2CHandle::Config i2c_conf;
  13:../DaisyExamples/libDaisy//src/per/i2c.h ****  *      i2c_conf.periph = I2CHandle::Config::Peripheral::I2C_1;
  14:../DaisyExamples/libDaisy//src/per/i2c.h ****  *      i2c_conf.speed  = I2CHandle::Config::Speed::I2C_400KHZ;
  15:../DaisyExamples/libDaisy//src/per/i2c.h ****  *      i2c_conf.mode   = I2CHandle::Config::Mode::Master;
  16:../DaisyExamples/libDaisy//src/per/i2c.h ****  *      i2c_conf.pin_config.scl  = {DSY_GPIOB, 8};
  17:../DaisyExamples/libDaisy//src/per/i2c.h ****  *      i2c_conf.pin_config.sda  = {DSY_GPIOB, 9};
  18:../DaisyExamples/libDaisy//src/per/i2c.h ****  *      // initialise the peripheral
  19:../DaisyExamples/libDaisy//src/per/i2c.h ****  *      I2CHandle i2c;
  20:../DaisyExamples/libDaisy//src/per/i2c.h ****  *      i2c.Init(i2c_conf);
  21:../DaisyExamples/libDaisy//src/per/i2c.h ****  *      // now i2c points to the corresponding peripheral and can be used.
  22:../DaisyExamples/libDaisy//src/per/i2c.h ****  *      i2c.TransmitBlocking( ... );
  23:../DaisyExamples/libDaisy//src/per/i2c.h ****  */
  24:../DaisyExamples/libDaisy//src/per/i2c.h **** class I2CHandle
  25:../DaisyExamples/libDaisy//src/per/i2c.h **** {
  26:../DaisyExamples/libDaisy//src/per/i2c.h ****   public:
ARM GAS  /tmp/ccQGrZAX.s 			page 18


  27:../DaisyExamples/libDaisy//src/per/i2c.h ****     /** Contains settings for initialising an I2C interface. */
  28:../DaisyExamples/libDaisy//src/per/i2c.h ****     struct Config
  29:../DaisyExamples/libDaisy//src/per/i2c.h ****     {
  30:../DaisyExamples/libDaisy//src/per/i2c.h ****         /** Specifies whether the interface will operate in master or slave mode. */
  31:../DaisyExamples/libDaisy//src/per/i2c.h ****         enum class Mode
  32:../DaisyExamples/libDaisy//src/per/i2c.h ****         {
  33:../DaisyExamples/libDaisy//src/per/i2c.h ****             I2C_MASTER,
  34:../DaisyExamples/libDaisy//src/per/i2c.h ****             I2C_SLAVE,
  35:../DaisyExamples/libDaisy//src/per/i2c.h ****         };
  36:../DaisyExamples/libDaisy//src/per/i2c.h **** 
  37:../DaisyExamples/libDaisy//src/per/i2c.h ****         /** Specifices the internal peripheral to use (these are mapped to different pins on the ha
  38:../DaisyExamples/libDaisy//src/per/i2c.h ****         enum class Peripheral
  39:../DaisyExamples/libDaisy//src/per/i2c.h ****         {
  40:../DaisyExamples/libDaisy//src/per/i2c.h ****             I2C_1 = 0, /**< & */
  41:../DaisyExamples/libDaisy//src/per/i2c.h ****             I2C_2,     /**< & */
  42:../DaisyExamples/libDaisy//src/per/i2c.h ****             I2C_3,     /**< & */
  43:../DaisyExamples/libDaisy//src/per/i2c.h ****             I2C_4,     /**< & */
  44:../DaisyExamples/libDaisy//src/per/i2c.h ****         };
  45:../DaisyExamples/libDaisy//src/per/i2c.h **** 
  46:../DaisyExamples/libDaisy//src/per/i2c.h ****         /** Rate at which the clock/data will be sent/received. The device being used will have max
  47:../DaisyExamples/libDaisy//src/per/i2c.h ****          *  1MHZ Mode is currently 886kHz
  48:../DaisyExamples/libDaisy//src/per/i2c.h ****          */
  49:../DaisyExamples/libDaisy//src/per/i2c.h ****         enum class Speed
  50:../DaisyExamples/libDaisy//src/per/i2c.h ****         {
  51:../DaisyExamples/libDaisy//src/per/i2c.h ****             I2C_100KHZ, /**< & */
  52:../DaisyExamples/libDaisy//src/per/i2c.h ****             I2C_400KHZ, /**< & */
  53:../DaisyExamples/libDaisy//src/per/i2c.h ****             I2C_1MHZ,   /**< & */
  54:../DaisyExamples/libDaisy//src/per/i2c.h ****         };
  55:../DaisyExamples/libDaisy//src/per/i2c.h **** 
  56:../DaisyExamples/libDaisy//src/per/i2c.h ****         Peripheral periph; /**< & */
  57:../DaisyExamples/libDaisy//src/per/i2c.h ****         struct
  58:../DaisyExamples/libDaisy//src/per/i2c.h ****         {
  59:../DaisyExamples/libDaisy//src/per/i2c.h ****             dsy_gpio_pin scl; /**< & */
  60:../DaisyExamples/libDaisy//src/per/i2c.h ****             dsy_gpio_pin sda; /**< & */
  61:../DaisyExamples/libDaisy//src/per/i2c.h ****         } pin_config;         /**< & */
  62:../DaisyExamples/libDaisy//src/per/i2c.h **** 
  63:../DaisyExamples/libDaisy//src/per/i2c.h ****         Speed speed; /**< & */
  64:../DaisyExamples/libDaisy//src/per/i2c.h ****         Mode  mode;  /**< & */
  65:../DaisyExamples/libDaisy//src/per/i2c.h ****         // 0x10 is chosen as a default to avoid conflicts with reserved addresses
  66:../DaisyExamples/libDaisy//src/per/i2c.h ****         uint8_t address = 0x10; /**< & */
  67:../DaisyExamples/libDaisy//src/per/i2c.h ****     };
  68:../DaisyExamples/libDaisy//src/per/i2c.h **** 
  69:../DaisyExamples/libDaisy//src/per/i2c.h ****     /** Return values for I2C functions. */
  70:../DaisyExamples/libDaisy//src/per/i2c.h ****     enum class Result
  71:../DaisyExamples/libDaisy//src/per/i2c.h ****     {
  72:../DaisyExamples/libDaisy//src/per/i2c.h ****         OK, /**< & */
  73:../DaisyExamples/libDaisy//src/per/i2c.h ****         ERR /**< & */
  74:../DaisyExamples/libDaisy//src/per/i2c.h ****     };
  75:../DaisyExamples/libDaisy//src/per/i2c.h **** 
  76:../DaisyExamples/libDaisy//src/per/i2c.h ****     enum class Direction
  77:../DaisyExamples/libDaisy//src/per/i2c.h ****     {
  78:../DaisyExamples/libDaisy//src/per/i2c.h ****         TRANSMIT, /**< & */
  79:../DaisyExamples/libDaisy//src/per/i2c.h ****         RECEIVE,  /**< & */
  80:../DaisyExamples/libDaisy//src/per/i2c.h ****     };
  81:../DaisyExamples/libDaisy//src/per/i2c.h **** 
  82:../DaisyExamples/libDaisy//src/per/i2c.h ****     I2CHandle() : pimpl_(nullptr) {}
 249              		.loc 10 82 5 view .LVU57
ARM GAS  /tmp/ccQGrZAX.s 			page 19


 250              		.loc 10 82 5 is_stmt 0 view .LVU58
 251              	.LBE245:
 252              	.LBE244:
 253              	.LBE243:
 254              	.LBB250:
 255              	.LBI250:
 256              		.file 11 "../DaisyExamples/libDaisy//src/per/dac.h"
   1:../DaisyExamples/libDaisy//src/per/dac.h **** #pragma once
   2:../DaisyExamples/libDaisy//src/per/dac.h **** #ifndef DSY_DAC_H
   3:../DaisyExamples/libDaisy//src/per/dac.h **** #define DSY_DAC_H
   4:../DaisyExamples/libDaisy//src/per/dac.h **** 
   5:../DaisyExamples/libDaisy//src/per/dac.h **** #include "daisy_core.h"
   6:../DaisyExamples/libDaisy//src/per/dac.h **** 
   7:../DaisyExamples/libDaisy//src/per/dac.h **** namespace daisy
   8:../DaisyExamples/libDaisy//src/per/dac.h **** {
   9:../DaisyExamples/libDaisy//src/per/dac.h **** /** @brief DAC handle for Built-in DAC Peripheral 
  10:../DaisyExamples/libDaisy//src/per/dac.h ****  *  @ingroup per_analog
  11:../DaisyExamples/libDaisy//src/per/dac.h ****  ** 
  12:../DaisyExamples/libDaisy//src/per/dac.h ****  ** For now only Normal Mode is supported,
  13:../DaisyExamples/libDaisy//src/per/dac.h ****  ** Sample and hold mode provides reduced power consumption, but requires a bit more setup.
  14:../DaisyExamples/libDaisy//src/per/dac.h ****  **
  15:../DaisyExamples/libDaisy//src/per/dac.h ****  ** For now connecting the DAC through other internal peripherals is also not supported.
  16:../DaisyExamples/libDaisy//src/per/dac.h ****  **
  17:../DaisyExamples/libDaisy//src/per/dac.h ****  ** Since the DAC channels have dedicated pins we don't need to pass in a pin config like with
  18:../DaisyExamples/libDaisy//src/per/dac.h ****  ** other modules. However, it is still important to not try to use the DAC pins for anything else.
  19:../DaisyExamples/libDaisy//src/per/dac.h ****  ** DAC Channel 1 is on PA4, and DAC Channel 2 is on PA5
  20:../DaisyExamples/libDaisy//src/per/dac.h ****  ***/
  21:../DaisyExamples/libDaisy//src/per/dac.h **** class DacHandle
  22:../DaisyExamples/libDaisy//src/per/dac.h **** {
  23:../DaisyExamples/libDaisy//src/per/dac.h ****   public:
  24:../DaisyExamples/libDaisy//src/per/dac.h ****     /** Return Values for the DacHandle class */
  25:../DaisyExamples/libDaisy//src/per/dac.h ****     enum class Result
  26:../DaisyExamples/libDaisy//src/per/dac.h ****     {
  27:../DaisyExamples/libDaisy//src/per/dac.h ****         OK,
  28:../DaisyExamples/libDaisy//src/per/dac.h ****         ERR,
  29:../DaisyExamples/libDaisy//src/per/dac.h ****     };
  30:../DaisyExamples/libDaisy//src/per/dac.h **** 
  31:../DaisyExamples/libDaisy//src/per/dac.h ****     /** Selects which channel(s) will be configured for use. */
  32:../DaisyExamples/libDaisy//src/per/dac.h ****     enum class Channel
  33:../DaisyExamples/libDaisy//src/per/dac.h ****     {
  34:../DaisyExamples/libDaisy//src/per/dac.h ****         ONE,
  35:../DaisyExamples/libDaisy//src/per/dac.h ****         TWO,
  36:../DaisyExamples/libDaisy//src/per/dac.h ****         BOTH,
  37:../DaisyExamples/libDaisy//src/per/dac.h ****     };
  38:../DaisyExamples/libDaisy//src/per/dac.h **** 
  39:../DaisyExamples/libDaisy//src/per/dac.h ****     /** Sets the Mode for the DAC channels.
  40:../DaisyExamples/libDaisy//src/per/dac.h ****      **
  41:../DaisyExamples/libDaisy//src/per/dac.h ****      ** Polling mode uses the blocking mode to transmit a single value at a time.
  42:../DaisyExamples/libDaisy//src/per/dac.h ****      **
  43:../DaisyExamples/libDaisy//src/per/dac.h ****      ** DMA mode uses a buffer, and periodically transmits it triggering a 
  44:../DaisyExamples/libDaisy//src/per/dac.h ****      ** callback to fill the buffer when it is ready for more samples.
  45:../DaisyExamples/libDaisy//src/per/dac.h ****      ***/
  46:../DaisyExamples/libDaisy//src/per/dac.h ****     enum class Mode
  47:../DaisyExamples/libDaisy//src/per/dac.h ****     {
  48:../DaisyExamples/libDaisy//src/per/dac.h ****         POLLING,
  49:../DaisyExamples/libDaisy//src/per/dac.h ****         DMA,
  50:../DaisyExamples/libDaisy//src/per/dac.h ****     };
ARM GAS  /tmp/ccQGrZAX.s 			page 20


  51:../DaisyExamples/libDaisy//src/per/dac.h **** 
  52:../DaisyExamples/libDaisy//src/per/dac.h ****     /** Sets the number of bits per sample transmitted out of the DAC.
  53:../DaisyExamples/libDaisy//src/per/dac.h ****      ** The output range will be: 0V - VDDA
  54:../DaisyExamples/libDaisy//src/per/dac.h ****      ** The resolution will be roughly: bitdepth / (VDDA - 0V) 
  55:../DaisyExamples/libDaisy//src/per/dac.h ****      ***/
  56:../DaisyExamples/libDaisy//src/per/dac.h ****     enum class BitDepth
  57:../DaisyExamples/libDaisy//src/per/dac.h ****     {
  58:../DaisyExamples/libDaisy//src/per/dac.h ****         BITS_8,
  59:../DaisyExamples/libDaisy//src/per/dac.h ****         BITS_12
  60:../DaisyExamples/libDaisy//src/per/dac.h ****     };
  61:../DaisyExamples/libDaisy//src/per/dac.h **** 
  62:../DaisyExamples/libDaisy//src/per/dac.h ****     /** Sets whether the DAC output is buffered for higher drive ability. */
  63:../DaisyExamples/libDaisy//src/per/dac.h ****     enum class BufferState
  64:../DaisyExamples/libDaisy//src/per/dac.h ****     {
  65:../DaisyExamples/libDaisy//src/per/dac.h ****         ENABLED,
  66:../DaisyExamples/libDaisy//src/per/dac.h ****         DISABLED,
  67:../DaisyExamples/libDaisy//src/per/dac.h ****     };
  68:../DaisyExamples/libDaisy//src/per/dac.h **** 
  69:../DaisyExamples/libDaisy//src/per/dac.h ****     /** Configuration structure for initializing the DAC structure. */
  70:../DaisyExamples/libDaisy//src/per/dac.h ****     struct Config
  71:../DaisyExamples/libDaisy//src/per/dac.h ****     {
  72:../DaisyExamples/libDaisy//src/per/dac.h ****         /** Target Samplerate in Hz used to configure the internal 
  73:../DaisyExamples/libDaisy//src/per/dac.h ****          ** timebase for DMA mode. Does nothing in POLLING mode.
  74:../DaisyExamples/libDaisy//src/per/dac.h ****          ** If the value is 0 at Init time this will default to 48000Hz 
  75:../DaisyExamples/libDaisy//src/per/dac.h ****          ** otherwise the driver will attempt meet the target.*/
  76:../DaisyExamples/libDaisy//src/per/dac.h ****         uint32_t target_samplerate;
  77:../DaisyExamples/libDaisy//src/per/dac.h **** 
  78:../DaisyExamples/libDaisy//src/per/dac.h ****         Channel     chn;
  79:../DaisyExamples/libDaisy//src/per/dac.h ****         Mode        mode;
  80:../DaisyExamples/libDaisy//src/per/dac.h ****         BitDepth    bitdepth;
  81:../DaisyExamples/libDaisy//src/per/dac.h ****         BufferState buff_state;
  82:../DaisyExamples/libDaisy//src/per/dac.h ****     };
  83:../DaisyExamples/libDaisy//src/per/dac.h **** 
  84:../DaisyExamples/libDaisy//src/per/dac.h ****     DacHandle() : pimpl_(nullptr) {}
 257              		.loc 11 84 5 is_stmt 1 view .LVU59
 258              		.loc 11 84 5 is_stmt 0 view .LVU60
 259              	.LBE250:
 260              	.LBE233:
 261              	.LBE232:
 262              	.LBE231:
 263              	.LBE230:
  64:../DaisyExamples/libDaisy//src/daisy_patch_sm.h ****         ~DaisyPatchSM() {}
 264              		.loc 1 64 24 is_stmt 1 view .LVU61
 265              	.LBB312:
 266              	.LBB309:
 267              	.LBB305:
 268              	.LBB301:
 269              	.LBB253:
 270              	.LBI253:
  18:../DaisyExamples/libDaisy//src/hid/gatein.h **** 
 271              		.loc 2 18 5 view .LVU62
 272              	.LBB254:
 273              	.LBB255:
 274              	.LBI255:
 275              		.file 12 "../DaisyExamples/libDaisy//src/per/gpio.h"
   1:../DaisyExamples/libDaisy//src/per/gpio.h **** #pragma once
   2:../DaisyExamples/libDaisy//src/per/gpio.h **** #ifndef DSY_GPIO_H
ARM GAS  /tmp/ccQGrZAX.s 			page 21


   3:../DaisyExamples/libDaisy//src/per/gpio.h **** #define DSY_GPIO_H
   4:../DaisyExamples/libDaisy//src/per/gpio.h **** #include "daisy_core.h"
   5:../DaisyExamples/libDaisy//src/per/gpio.h **** 
   6:../DaisyExamples/libDaisy//src/per/gpio.h **** #ifdef __cplusplus
   7:../DaisyExamples/libDaisy//src/per/gpio.h **** 
   8:../DaisyExamples/libDaisy//src/per/gpio.h **** namespace daisy
   9:../DaisyExamples/libDaisy//src/per/gpio.h **** {
  10:../DaisyExamples/libDaisy//src/per/gpio.h **** /** @brief General Purpose I/O control 
  11:../DaisyExamples/libDaisy//src/per/gpio.h ****  *  @details peripheral control over a single GPIO
  12:../DaisyExamples/libDaisy//src/per/gpio.h ****  *  @ingroup peripheral
  13:../DaisyExamples/libDaisy//src/per/gpio.h ****  *   
  14:../DaisyExamples/libDaisy//src/per/gpio.h ****  *  Button Input (with internal Pullup resistor)
  15:../DaisyExamples/libDaisy//src/per/gpio.h ****  *  @include GPIO_Input.cpp 
  16:../DaisyExamples/libDaisy//src/per/gpio.h ****  * 
  17:../DaisyExamples/libDaisy//src/per/gpio.h ****  *  Output Example (perfect for blinking an LED)
  18:../DaisyExamples/libDaisy//src/per/gpio.h ****  *  @include GPIO_Output.cpp
  19:../DaisyExamples/libDaisy//src/per/gpio.h ****  * 
  20:../DaisyExamples/libDaisy//src/per/gpio.h **** */
  21:../DaisyExamples/libDaisy//src/per/gpio.h **** class GPIO
  22:../DaisyExamples/libDaisy//src/per/gpio.h **** {
  23:../DaisyExamples/libDaisy//src/per/gpio.h ****   public:
  24:../DaisyExamples/libDaisy//src/per/gpio.h ****     /** @brief Mode of operation for the specified GPIO */
  25:../DaisyExamples/libDaisy//src/per/gpio.h ****     enum class Mode
  26:../DaisyExamples/libDaisy//src/per/gpio.h ****     {
  27:../DaisyExamples/libDaisy//src/per/gpio.h ****         INPUT,     /**< Input for reading state of pin */
  28:../DaisyExamples/libDaisy//src/per/gpio.h ****         OUTPUT,    /**< Output w/ push-pull configuration */
  29:../DaisyExamples/libDaisy//src/per/gpio.h ****         OUTPUT_OD, /**< Output w/ open-drain configuration */
  30:../DaisyExamples/libDaisy//src/per/gpio.h ****         ANALOG,    /**< Analog for connection to ADC or DAC peripheral */
  31:../DaisyExamples/libDaisy//src/per/gpio.h ****     };
  32:../DaisyExamples/libDaisy//src/per/gpio.h **** 
  33:../DaisyExamples/libDaisy//src/per/gpio.h ****     /** @brief Configures whether an internal Pull up or Pull down resistor is used. 
  34:../DaisyExamples/libDaisy//src/per/gpio.h ****      *  
  35:../DaisyExamples/libDaisy//src/per/gpio.h ****      * Internal Pull up/down resistors are typically 40k ohms, and will be between
  36:../DaisyExamples/libDaisy//src/per/gpio.h ****      * 30k and 50k
  37:../DaisyExamples/libDaisy//src/per/gpio.h ****      * 
  38:../DaisyExamples/libDaisy//src/per/gpio.h ****      * When the Pin is configured in Analog mode, the pull up/down resistors are
  39:../DaisyExamples/libDaisy//src/per/gpio.h ****      * disabled by hardware. 
  40:../DaisyExamples/libDaisy//src/per/gpio.h ****      */
  41:../DaisyExamples/libDaisy//src/per/gpio.h ****     enum class Pull
  42:../DaisyExamples/libDaisy//src/per/gpio.h ****     {
  43:../DaisyExamples/libDaisy//src/per/gpio.h ****         NOPULL,   /**< No pull up resistor */
  44:../DaisyExamples/libDaisy//src/per/gpio.h ****         PULLUP,   /**< Internal pull up enabled */
  45:../DaisyExamples/libDaisy//src/per/gpio.h ****         PULLDOWN, /**< Internal pull down enabled*/
  46:../DaisyExamples/libDaisy//src/per/gpio.h ****     };
  47:../DaisyExamples/libDaisy//src/per/gpio.h **** 
  48:../DaisyExamples/libDaisy//src/per/gpio.h ****     /** @brief Output speed controls the drive strength, and slew rate of the pin */
  49:../DaisyExamples/libDaisy//src/per/gpio.h ****     enum class Speed
  50:../DaisyExamples/libDaisy//src/per/gpio.h ****     {
  51:../DaisyExamples/libDaisy//src/per/gpio.h ****         LOW,
  52:../DaisyExamples/libDaisy//src/per/gpio.h ****         MEDIUM,
  53:../DaisyExamples/libDaisy//src/per/gpio.h ****         HIGH,
  54:../DaisyExamples/libDaisy//src/per/gpio.h ****         VERY_HIGH,
  55:../DaisyExamples/libDaisy//src/per/gpio.h ****     };
  56:../DaisyExamples/libDaisy//src/per/gpio.h **** 
  57:../DaisyExamples/libDaisy//src/per/gpio.h ****     /** @brief Configuration for a given GPIO */
  58:../DaisyExamples/libDaisy//src/per/gpio.h ****     struct Config
  59:../DaisyExamples/libDaisy//src/per/gpio.h ****     {
ARM GAS  /tmp/ccQGrZAX.s 			page 22


  60:../DaisyExamples/libDaisy//src/per/gpio.h ****         Pin   pin;
  61:../DaisyExamples/libDaisy//src/per/gpio.h ****         Mode  mode;
  62:../DaisyExamples/libDaisy//src/per/gpio.h ****         Pull  pull;
  63:../DaisyExamples/libDaisy//src/per/gpio.h ****         Speed speed;
  64:../DaisyExamples/libDaisy//src/per/gpio.h **** 
  65:../DaisyExamples/libDaisy//src/per/gpio.h ****         /** Constructor with no arguments will prepare an invalid GPIO set as
  66:../DaisyExamples/libDaisy//src/per/gpio.h ****          *  an input, with no pullup. 
  67:../DaisyExamples/libDaisy//src/per/gpio.h ****          */
  68:../DaisyExamples/libDaisy//src/per/gpio.h ****         Config()
  69:../DaisyExamples/libDaisy//src/per/gpio.h ****         : pin(), mode(Mode::INPUT), pull(Pull::NOPULL), speed(Speed::LOW)
  70:../DaisyExamples/libDaisy//src/per/gpio.h ****         {
  71:../DaisyExamples/libDaisy//src/per/gpio.h ****         }
  72:../DaisyExamples/libDaisy//src/per/gpio.h ****     };
  73:../DaisyExamples/libDaisy//src/per/gpio.h **** 
  74:../DaisyExamples/libDaisy//src/per/gpio.h ****     GPIO() {}
 276              		.loc 12 74 5 view .LVU63
 277              	.LBB256:
 278              	.LBB257:
 279              	.LBI257:
  68:../DaisyExamples/libDaisy//src/per/gpio.h ****         : pin(), mode(Mode::INPUT), pull(Pull::NOPULL), speed(Speed::LOW)
 280              		.loc 12 68 9 view .LVU64
 281              	.LBB258:
 282              	.LBB259:
 283              	.LBB260:
 284              	.LBI260:
 285              		.file 13 "../DaisyExamples/libDaisy//src/daisy_core.h"
   1:../DaisyExamples/libDaisy//src/daisy_core.h **** #pragma once
   2:../DaisyExamples/libDaisy//src/daisy_core.h **** #ifndef DSY_CORE_HW_H
   3:../DaisyExamples/libDaisy//src/daisy_core.h **** #define DSY_CORE_HW_H /**< & */
   4:../DaisyExamples/libDaisy//src/daisy_core.h **** #include <stdint.h>
   5:../DaisyExamples/libDaisy//src/daisy_core.h **** #include <stdlib.h>
   6:../DaisyExamples/libDaisy//src/daisy_core.h **** 
   7:../DaisyExamples/libDaisy//src/daisy_core.h **** #if defined(_MSC_VER)
   8:../DaisyExamples/libDaisy//src/daisy_core.h **** #define FORCE_INLINE __forceinline /**< & */
   9:../DaisyExamples/libDaisy//src/daisy_core.h **** #elif defined(__clang__)
  10:../DaisyExamples/libDaisy//src/daisy_core.h **** #define FORCE_INLINE inline __attribute__((always_inline)) /**< & */
  11:../DaisyExamples/libDaisy//src/daisy_core.h **** #pragma clang diagnostic ignored "-Wduplicate-decl-specifier"
  12:../DaisyExamples/libDaisy//src/daisy_core.h **** #elif defined(__GNUC__)
  13:../DaisyExamples/libDaisy//src/daisy_core.h **** #define FORCE_INLINE inline __attribute__((always_inline)) /**< & */
  14:../DaisyExamples/libDaisy//src/daisy_core.h **** #else
  15:../DaisyExamples/libDaisy//src/daisy_core.h **** #error unknown compiler
  16:../DaisyExamples/libDaisy//src/daisy_core.h **** #endif
  17:../DaisyExamples/libDaisy//src/daisy_core.h **** 
  18:../DaisyExamples/libDaisy//src/daisy_core.h **** /** @addtogroup utility
  19:../DaisyExamples/libDaisy//src/daisy_core.h ****     @{
  20:../DaisyExamples/libDaisy//src/daisy_core.h **** */
  21:../DaisyExamples/libDaisy//src/daisy_core.h **** 
  22:../DaisyExamples/libDaisy//src/daisy_core.h **** /** Macro for area of memory that is configured as cacheless
  23:../DaisyExamples/libDaisy//src/daisy_core.h **** This should be used primarily for DMA buffers, and the like.
  24:../DaisyExamples/libDaisy//src/daisy_core.h **** */
  25:../DaisyExamples/libDaisy//src/daisy_core.h **** #define DMA_BUFFER_MEM_SECTION __attribute__((section(".sram1_bss")))
  26:../DaisyExamples/libDaisy//src/daisy_core.h **** /** 
  27:../DaisyExamples/libDaisy//src/daisy_core.h **** THE DTCM RAM section is also non-cached. However, is not suitable 
  28:../DaisyExamples/libDaisy//src/daisy_core.h **** for DMA transfers. Performance is on par with internal SRAM w/ 
  29:../DaisyExamples/libDaisy//src/daisy_core.h **** cache enabled.
  30:../DaisyExamples/libDaisy//src/daisy_core.h **** */
  31:../DaisyExamples/libDaisy//src/daisy_core.h **** #define DTCM_MEM_SECTION __attribute__((section(".dtcmram_bss")))
ARM GAS  /tmp/ccQGrZAX.s 			page 23


  32:../DaisyExamples/libDaisy//src/daisy_core.h **** 
  33:../DaisyExamples/libDaisy//src/daisy_core.h **** #define FBIPMAX 0.999985f             /**< close to 1.0f-LSB at 16 bit */
  34:../DaisyExamples/libDaisy//src/daisy_core.h **** #define FBIPMIN (-FBIPMAX)            /**< - (1 - LSB) */
  35:../DaisyExamples/libDaisy//src/daisy_core.h **** #define U82F_SCALE 0.0078740f         /**< 1 / 127 */
  36:../DaisyExamples/libDaisy//src/daisy_core.h **** #define F2U8_SCALE 127.0f             /**< 128 - 1 */
  37:../DaisyExamples/libDaisy//src/daisy_core.h **** #define S82F_SCALE 0.0078125f         /**< 1 / (2**7) */
  38:../DaisyExamples/libDaisy//src/daisy_core.h **** #define F2S8_SCALE 127.0f             /**< (2 ** 7) - 1 */
  39:../DaisyExamples/libDaisy//src/daisy_core.h **** #define S162F_SCALE 3.0517578125e-05f /**< 1 / (2** 15) */
  40:../DaisyExamples/libDaisy//src/daisy_core.h **** #define F2S16_SCALE 32767.0f          /**< (2 ** 15) - 1 */
  41:../DaisyExamples/libDaisy//src/daisy_core.h **** #define F2S24_SCALE 8388608.0f        /**< 2 ** 23 */
  42:../DaisyExamples/libDaisy//src/daisy_core.h **** #define S242F_SCALE 1.192092896e-07f  /**< 1 / (2 ** 23) */
  43:../DaisyExamples/libDaisy//src/daisy_core.h **** #define S24SIGN 0x800000              /**< 2 ** 23 */
  44:../DaisyExamples/libDaisy//src/daisy_core.h **** #define S322F_SCALE 4.6566129e-10f    /**< 1 / (2** 31) */
  45:../DaisyExamples/libDaisy//src/daisy_core.h **** #define F2S32_SCALE 2147483647.f      /**< (2 ** 31) - 1 */
  46:../DaisyExamples/libDaisy//src/daisy_core.h **** 
  47:../DaisyExamples/libDaisy//src/daisy_core.h **** 
  48:../DaisyExamples/libDaisy//src/daisy_core.h **** /** shorthand macro for simplifying the reading of the left 
  49:../DaisyExamples/libDaisy//src/daisy_core.h ****  *  channel of a non-interleaved output buffer named out */
  50:../DaisyExamples/libDaisy//src/daisy_core.h **** #define OUT_L out[0]
  51:../DaisyExamples/libDaisy//src/daisy_core.h **** 
  52:../DaisyExamples/libDaisy//src/daisy_core.h **** /** shorthand macro for simplifying the reading of the right 
  53:../DaisyExamples/libDaisy//src/daisy_core.h ****  *  channel of a non-interleaved output buffer named out */
  54:../DaisyExamples/libDaisy//src/daisy_core.h **** #define OUT_R out[1]
  55:../DaisyExamples/libDaisy//src/daisy_core.h **** 
  56:../DaisyExamples/libDaisy//src/daisy_core.h **** /** shorthand macro for simplifying the reading of the left 
  57:../DaisyExamples/libDaisy//src/daisy_core.h ****  *  channel of a non-interleaved input buffer named in */
  58:../DaisyExamples/libDaisy//src/daisy_core.h **** #define IN_L in[0]
  59:../DaisyExamples/libDaisy//src/daisy_core.h **** 
  60:../DaisyExamples/libDaisy//src/daisy_core.h **** /** shorthand macro for simplifying the reading of the right 
  61:../DaisyExamples/libDaisy//src/daisy_core.h ****  *  channel of a non-interleaved input buffer named in */
  62:../DaisyExamples/libDaisy//src/daisy_core.h **** #define IN_R in[1]
  63:../DaisyExamples/libDaisy//src/daisy_core.h **** 
  64:../DaisyExamples/libDaisy//src/daisy_core.h **** /** 
  65:../DaisyExamples/libDaisy//src/daisy_core.h ****     Computes cube.
  66:../DaisyExamples/libDaisy//src/daisy_core.h ****     \param x Number to be cubed
  67:../DaisyExamples/libDaisy//src/daisy_core.h ****     \return x ^ 3
  68:../DaisyExamples/libDaisy//src/daisy_core.h **** */
  69:../DaisyExamples/libDaisy//src/daisy_core.h **** FORCE_INLINE float cube(float x)
  70:../DaisyExamples/libDaisy//src/daisy_core.h **** {
  71:../DaisyExamples/libDaisy//src/daisy_core.h ****     return (x * x) * x;
  72:../DaisyExamples/libDaisy//src/daisy_core.h **** }
  73:../DaisyExamples/libDaisy//src/daisy_core.h **** 
  74:../DaisyExamples/libDaisy//src/daisy_core.h **** /** 
  75:../DaisyExamples/libDaisy//src/daisy_core.h ****     Converts unsigned 8-bit to float
  76:../DaisyExamples/libDaisy//src/daisy_core.h ****     \param x Number to be scaled.
  77:../DaisyExamples/libDaisy//src/daisy_core.h ****     \return Scaled number.
  78:../DaisyExamples/libDaisy//src/daisy_core.h **** */
  79:../DaisyExamples/libDaisy//src/daisy_core.h **** FORCE_INLINE float u82f(uint8_t x)
  80:../DaisyExamples/libDaisy//src/daisy_core.h **** {
  81:../DaisyExamples/libDaisy//src/daisy_core.h ****     return ((float)x - 127.f) * U82F_SCALE;
  82:../DaisyExamples/libDaisy//src/daisy_core.h **** }
  83:../DaisyExamples/libDaisy//src/daisy_core.h **** 
  84:../DaisyExamples/libDaisy//src/daisy_core.h **** /**
  85:../DaisyExamples/libDaisy//src/daisy_core.h ****     Converts float to unsigned 8-bit
  86:../DaisyExamples/libDaisy//src/daisy_core.h **** */
  87:../DaisyExamples/libDaisy//src/daisy_core.h **** FORCE_INLINE uint8_t f2u8(float x)
  88:../DaisyExamples/libDaisy//src/daisy_core.h **** {
ARM GAS  /tmp/ccQGrZAX.s 			page 24


  89:../DaisyExamples/libDaisy//src/daisy_core.h ****     x = x <= FBIPMIN ? FBIPMIN : x;
  90:../DaisyExamples/libDaisy//src/daisy_core.h ****     x = x >= FBIPMAX ? FBIPMAX : x;
  91:../DaisyExamples/libDaisy//src/daisy_core.h ****     return (uint8_t)((x * F2U8_SCALE) + F2U8_SCALE);
  92:../DaisyExamples/libDaisy//src/daisy_core.h **** }
  93:../DaisyExamples/libDaisy//src/daisy_core.h **** 
  94:../DaisyExamples/libDaisy//src/daisy_core.h **** 
  95:../DaisyExamples/libDaisy//src/daisy_core.h **** /** 
  96:../DaisyExamples/libDaisy//src/daisy_core.h ****     Converts Signed 8-bit to float
  97:../DaisyExamples/libDaisy//src/daisy_core.h ****     \param x Number to be scaled.
  98:../DaisyExamples/libDaisy//src/daisy_core.h ****     \return Scaled number.
  99:../DaisyExamples/libDaisy//src/daisy_core.h **** */
 100:../DaisyExamples/libDaisy//src/daisy_core.h **** FORCE_INLINE float s82f(int8_t x)
 101:../DaisyExamples/libDaisy//src/daisy_core.h **** {
 102:../DaisyExamples/libDaisy//src/daisy_core.h ****     return (float)x * S82F_SCALE;
 103:../DaisyExamples/libDaisy//src/daisy_core.h **** }
 104:../DaisyExamples/libDaisy//src/daisy_core.h **** 
 105:../DaisyExamples/libDaisy//src/daisy_core.h **** /**
 106:../DaisyExamples/libDaisy//src/daisy_core.h ****     Converts float to Signed 8-bit
 107:../DaisyExamples/libDaisy//src/daisy_core.h **** */
 108:../DaisyExamples/libDaisy//src/daisy_core.h **** FORCE_INLINE int8_t f2s8(float x)
 109:../DaisyExamples/libDaisy//src/daisy_core.h **** {
 110:../DaisyExamples/libDaisy//src/daisy_core.h ****     x = x <= FBIPMIN ? FBIPMIN : x;
 111:../DaisyExamples/libDaisy//src/daisy_core.h ****     x = x >= FBIPMAX ? FBIPMAX : x;
 112:../DaisyExamples/libDaisy//src/daisy_core.h ****     return (int32_t)(x * F2S8_SCALE);
 113:../DaisyExamples/libDaisy//src/daisy_core.h **** }
 114:../DaisyExamples/libDaisy//src/daisy_core.h **** 
 115:../DaisyExamples/libDaisy//src/daisy_core.h **** /** 
 116:../DaisyExamples/libDaisy//src/daisy_core.h ****     Converts Signed 16-bit to float
 117:../DaisyExamples/libDaisy//src/daisy_core.h ****     \param x Number to be scaled.
 118:../DaisyExamples/libDaisy//src/daisy_core.h ****     \return Scaled number.
 119:../DaisyExamples/libDaisy//src/daisy_core.h **** */
 120:../DaisyExamples/libDaisy//src/daisy_core.h **** FORCE_INLINE float s162f(int16_t x)
 121:../DaisyExamples/libDaisy//src/daisy_core.h **** {
 122:../DaisyExamples/libDaisy//src/daisy_core.h ****     return (float)x * S162F_SCALE;
 123:../DaisyExamples/libDaisy//src/daisy_core.h **** }
 124:../DaisyExamples/libDaisy//src/daisy_core.h **** 
 125:../DaisyExamples/libDaisy//src/daisy_core.h **** /**
 126:../DaisyExamples/libDaisy//src/daisy_core.h ****     Converts float to Signed 16-bit
 127:../DaisyExamples/libDaisy//src/daisy_core.h **** */
 128:../DaisyExamples/libDaisy//src/daisy_core.h **** FORCE_INLINE int16_t f2s16(float x)
 129:../DaisyExamples/libDaisy//src/daisy_core.h **** {
 130:../DaisyExamples/libDaisy//src/daisy_core.h ****     x = x <= FBIPMIN ? FBIPMIN : x;
 131:../DaisyExamples/libDaisy//src/daisy_core.h ****     x = x >= FBIPMAX ? FBIPMAX : x;
 132:../DaisyExamples/libDaisy//src/daisy_core.h ****     return (int32_t)(x * F2S16_SCALE);
 133:../DaisyExamples/libDaisy//src/daisy_core.h **** }
 134:../DaisyExamples/libDaisy//src/daisy_core.h **** 
 135:../DaisyExamples/libDaisy//src/daisy_core.h **** /**
 136:../DaisyExamples/libDaisy//src/daisy_core.h ****     Converts Signed 24-bit to float
 137:../DaisyExamples/libDaisy//src/daisy_core.h ****  */
 138:../DaisyExamples/libDaisy//src/daisy_core.h **** FORCE_INLINE float s242f(int32_t x)
 139:../DaisyExamples/libDaisy//src/daisy_core.h **** {
 140:../DaisyExamples/libDaisy//src/daisy_core.h ****     x = (x ^ S24SIGN) - S24SIGN; //sign extend aka ((x<<8)>>8)
 141:../DaisyExamples/libDaisy//src/daisy_core.h ****     return (float)x * S242F_SCALE;
 142:../DaisyExamples/libDaisy//src/daisy_core.h **** }
 143:../DaisyExamples/libDaisy//src/daisy_core.h **** /**
 144:../DaisyExamples/libDaisy//src/daisy_core.h ****     Converts float to Signed 24-bit
 145:../DaisyExamples/libDaisy//src/daisy_core.h ****  */
ARM GAS  /tmp/ccQGrZAX.s 			page 25


 146:../DaisyExamples/libDaisy//src/daisy_core.h **** FORCE_INLINE int32_t f2s24(float x)
 147:../DaisyExamples/libDaisy//src/daisy_core.h **** {
 148:../DaisyExamples/libDaisy//src/daisy_core.h ****     x = x <= FBIPMIN ? FBIPMIN : x;
 149:../DaisyExamples/libDaisy//src/daisy_core.h ****     x = x >= FBIPMAX ? FBIPMAX : x;
 150:../DaisyExamples/libDaisy//src/daisy_core.h ****     return (int32_t)(x * F2S24_SCALE);
 151:../DaisyExamples/libDaisy//src/daisy_core.h **** }
 152:../DaisyExamples/libDaisy//src/daisy_core.h **** 
 153:../DaisyExamples/libDaisy//src/daisy_core.h **** /**
 154:../DaisyExamples/libDaisy//src/daisy_core.h ****     Converts Signed 32-bit to float
 155:../DaisyExamples/libDaisy//src/daisy_core.h ****  */
 156:../DaisyExamples/libDaisy//src/daisy_core.h **** FORCE_INLINE float s322f(int32_t x)
 157:../DaisyExamples/libDaisy//src/daisy_core.h **** {
 158:../DaisyExamples/libDaisy//src/daisy_core.h ****     return (float)x * S322F_SCALE;
 159:../DaisyExamples/libDaisy//src/daisy_core.h **** }
 160:../DaisyExamples/libDaisy//src/daisy_core.h **** /**
 161:../DaisyExamples/libDaisy//src/daisy_core.h ****     Converts float to Signed 24-bit
 162:../DaisyExamples/libDaisy//src/daisy_core.h ****  */
 163:../DaisyExamples/libDaisy//src/daisy_core.h **** FORCE_INLINE int32_t f2s32(float x)
 164:../DaisyExamples/libDaisy//src/daisy_core.h **** {
 165:../DaisyExamples/libDaisy//src/daisy_core.h ****     x = x <= FBIPMIN ? FBIPMIN : x;
 166:../DaisyExamples/libDaisy//src/daisy_core.h ****     x = x >= FBIPMAX ? FBIPMAX : x;
 167:../DaisyExamples/libDaisy//src/daisy_core.h ****     return (int32_t)(x * F2S32_SCALE);
 168:../DaisyExamples/libDaisy//src/daisy_core.h **** }
 169:../DaisyExamples/libDaisy//src/daisy_core.h **** 
 170:../DaisyExamples/libDaisy//src/daisy_core.h **** 
 171:../DaisyExamples/libDaisy//src/daisy_core.h **** /** Enums and a simple struct for defining a hardware pin on the MCU
 172:../DaisyExamples/libDaisy//src/daisy_core.h ****  *  These correlate with the stm32 datasheet, and are used to configure
 173:../DaisyExamples/libDaisy//src/daisy_core.h ****  *  the hardware.
 174:../DaisyExamples/libDaisy//src/daisy_core.h ****  * 
 175:../DaisyExamples/libDaisy//src/daisy_core.h ****  *  This along with the dsy_gpio_pin class should no longer be used.
 176:../DaisyExamples/libDaisy//src/daisy_core.h ****  *  They are available for backwards compatability. 
 177:../DaisyExamples/libDaisy//src/daisy_core.h ****  * 
 178:../DaisyExamples/libDaisy//src/daisy_core.h ****  *  Please use GPIOPort enum and the Pin struct instead.
 179:../DaisyExamples/libDaisy//src/daisy_core.h ****  */
 180:../DaisyExamples/libDaisy//src/daisy_core.h **** typedef enum
 181:../DaisyExamples/libDaisy//src/daisy_core.h **** {
 182:../DaisyExamples/libDaisy//src/daisy_core.h ****     DSY_GPIOA, /**< & */
 183:../DaisyExamples/libDaisy//src/daisy_core.h ****     DSY_GPIOB, /**< & */
 184:../DaisyExamples/libDaisy//src/daisy_core.h ****     DSY_GPIOC, /**< & */
 185:../DaisyExamples/libDaisy//src/daisy_core.h ****     DSY_GPIOD, /**< & */
 186:../DaisyExamples/libDaisy//src/daisy_core.h ****     DSY_GPIOE, /**< & */
 187:../DaisyExamples/libDaisy//src/daisy_core.h ****     DSY_GPIOF, /**< & */
 188:../DaisyExamples/libDaisy//src/daisy_core.h ****     DSY_GPIOG, /**< & */
 189:../DaisyExamples/libDaisy//src/daisy_core.h ****     DSY_GPIOH, /**< & */
 190:../DaisyExamples/libDaisy//src/daisy_core.h ****     DSY_GPIOI, /**< & */
 191:../DaisyExamples/libDaisy//src/daisy_core.h ****     DSY_GPIOJ, /**< & */
 192:../DaisyExamples/libDaisy//src/daisy_core.h ****     DSY_GPIOK, /**< & */
 193:../DaisyExamples/libDaisy//src/daisy_core.h ****     DSY_GPIOX, /** This is a non-existant port for unsupported bits of hardware. */
 194:../DaisyExamples/libDaisy//src/daisy_core.h ****     DSY_GPIO_LAST, /** Final enum member */
 195:../DaisyExamples/libDaisy//src/daisy_core.h **** } dsy_gpio_port;
 196:../DaisyExamples/libDaisy//src/daisy_core.h **** 
 197:../DaisyExamples/libDaisy//src/daisy_core.h **** /** Hardware define pins 
 198:../DaisyExamples/libDaisy//src/daisy_core.h ****  *  
 199:../DaisyExamples/libDaisy//src/daisy_core.h ****  *  The dsy_gpio_pin struct should no longer be used, and is only available for
 200:../DaisyExamples/libDaisy//src/daisy_core.h ****  *  backwards compatability.
 201:../DaisyExamples/libDaisy//src/daisy_core.h ****  * 
 202:../DaisyExamples/libDaisy//src/daisy_core.h ****  *  Please use Pin struct instead.
ARM GAS  /tmp/ccQGrZAX.s 			page 26


 203:../DaisyExamples/libDaisy//src/daisy_core.h ****  */
 204:../DaisyExamples/libDaisy//src/daisy_core.h **** typedef struct
 205:../DaisyExamples/libDaisy//src/daisy_core.h **** {
 206:../DaisyExamples/libDaisy//src/daisy_core.h ****     dsy_gpio_port port; /**< & */
 207:../DaisyExamples/libDaisy//src/daisy_core.h ****     uint8_t       pin;  /**< number 0-15 */
 208:../DaisyExamples/libDaisy//src/daisy_core.h **** } dsy_gpio_pin;
 209:../DaisyExamples/libDaisy//src/daisy_core.h **** 
 210:../DaisyExamples/libDaisy//src/daisy_core.h **** /** Helper for creating pins from port/pin combos easily
 211:../DaisyExamples/libDaisy//src/daisy_core.h ****  * 
 212:../DaisyExamples/libDaisy//src/daisy_core.h ****  *  The dsy_gpio_pin struct should no longer be used, and is only available for
 213:../DaisyExamples/libDaisy//src/daisy_core.h ****  *  backwards compatability.
 214:../DaisyExamples/libDaisy//src/daisy_core.h ****  * 
 215:../DaisyExamples/libDaisy//src/daisy_core.h ****  *  Please use Pin struct instead.
 216:../DaisyExamples/libDaisy//src/daisy_core.h **** */
 217:../DaisyExamples/libDaisy//src/daisy_core.h **** FORCE_INLINE dsy_gpio_pin dsy_pin(dsy_gpio_port port, uint8_t pin)
 218:../DaisyExamples/libDaisy//src/daisy_core.h **** {
 219:../DaisyExamples/libDaisy//src/daisy_core.h ****     dsy_gpio_pin p;
 220:../DaisyExamples/libDaisy//src/daisy_core.h ****     p.port = port;
 221:../DaisyExamples/libDaisy//src/daisy_core.h ****     p.pin  = pin;
 222:../DaisyExamples/libDaisy//src/daisy_core.h ****     return p;
 223:../DaisyExamples/libDaisy//src/daisy_core.h **** }
 224:../DaisyExamples/libDaisy//src/daisy_core.h **** 
 225:../DaisyExamples/libDaisy//src/daisy_core.h **** /** Helper for testing sameness of two dsy_gpio_pins
 226:../DaisyExamples/libDaisy//src/daisy_core.h ****  *  \return    1 if same, 0 if different
 227:../DaisyExamples/libDaisy//src/daisy_core.h ****  * 
 228:../DaisyExamples/libDaisy//src/daisy_core.h ****  *  The dsy_gpio_pin struct should no longer be used, and is only available for
 229:../DaisyExamples/libDaisy//src/daisy_core.h ****  *  backwards compatability.
 230:../DaisyExamples/libDaisy//src/daisy_core.h ****  * 
 231:../DaisyExamples/libDaisy//src/daisy_core.h ****  *  Please use Pin struct instead.
 232:../DaisyExamples/libDaisy//src/daisy_core.h ****  */
 233:../DaisyExamples/libDaisy//src/daisy_core.h **** FORCE_INLINE uint8_t dsy_pin_cmp(dsy_gpio_pin *a, dsy_gpio_pin *b)
 234:../DaisyExamples/libDaisy//src/daisy_core.h **** {
 235:../DaisyExamples/libDaisy//src/daisy_core.h ****     return ((a->port == b->port) && (a->pin == b->pin));
 236:../DaisyExamples/libDaisy//src/daisy_core.h **** }
 237:../DaisyExamples/libDaisy//src/daisy_core.h **** 
 238:../DaisyExamples/libDaisy//src/daisy_core.h **** #ifdef __cplusplus
 239:../DaisyExamples/libDaisy//src/daisy_core.h **** 
 240:../DaisyExamples/libDaisy//src/daisy_core.h **** namespace daisy
 241:../DaisyExamples/libDaisy//src/daisy_core.h **** {
 242:../DaisyExamples/libDaisy//src/daisy_core.h **** /** @brief GPIO Port names */
 243:../DaisyExamples/libDaisy//src/daisy_core.h **** enum GPIOPort
 244:../DaisyExamples/libDaisy//src/daisy_core.h **** {
 245:../DaisyExamples/libDaisy//src/daisy_core.h ****     PORTA, /**< Port A */
 246:../DaisyExamples/libDaisy//src/daisy_core.h ****     PORTB, /**< Port B */
 247:../DaisyExamples/libDaisy//src/daisy_core.h ****     PORTC, /**< Port C */
 248:../DaisyExamples/libDaisy//src/daisy_core.h ****     PORTD, /**< Port D */
 249:../DaisyExamples/libDaisy//src/daisy_core.h ****     PORTE, /**< Port E */
 250:../DaisyExamples/libDaisy//src/daisy_core.h ****     PORTF, /**< Port F */
 251:../DaisyExamples/libDaisy//src/daisy_core.h ****     PORTG, /**< Port G */
 252:../DaisyExamples/libDaisy//src/daisy_core.h ****     PORTH, /**< Port H */
 253:../DaisyExamples/libDaisy//src/daisy_core.h ****     PORTI, /**< Port I */
 254:../DaisyExamples/libDaisy//src/daisy_core.h ****     PORTJ, /**< Port J */
 255:../DaisyExamples/libDaisy//src/daisy_core.h ****     PORTK, /**< Port K */
 256:../DaisyExamples/libDaisy//src/daisy_core.h ****     PORTX, /**< Used as a dummy port to signal an invalid pin. */
 257:../DaisyExamples/libDaisy//src/daisy_core.h **** };
 258:../DaisyExamples/libDaisy//src/daisy_core.h **** 
 259:../DaisyExamples/libDaisy//src/daisy_core.h **** /** @brief representation of hardware port/pin combination */
ARM GAS  /tmp/ccQGrZAX.s 			page 27


 260:../DaisyExamples/libDaisy//src/daisy_core.h **** struct Pin
 261:../DaisyExamples/libDaisy//src/daisy_core.h **** {
 262:../DaisyExamples/libDaisy//src/daisy_core.h ****     GPIOPort port;
 263:../DaisyExamples/libDaisy//src/daisy_core.h ****     uint8_t  pin;
 264:../DaisyExamples/libDaisy//src/daisy_core.h **** 
 265:../DaisyExamples/libDaisy//src/daisy_core.h ****     /** @brief Constructor creates a valid pin. 
 266:../DaisyExamples/libDaisy//src/daisy_core.h ****      *  @param pt GPIOPort between PA, and PK corresponding to STM32 Port.
 267:../DaisyExamples/libDaisy//src/daisy_core.h ****      *  @param pn pin number in range of 0-15
 268:../DaisyExamples/libDaisy//src/daisy_core.h ****     */
 269:../DaisyExamples/libDaisy//src/daisy_core.h ****     constexpr Pin(const GPIOPort pt, const uint8_t pn) : port(pt), pin(pn) {}
 270:../DaisyExamples/libDaisy//src/daisy_core.h **** 
 271:../DaisyExamples/libDaisy//src/daisy_core.h ****     /** @brief Basic Constructor creates an invalid Pin object */
 272:../DaisyExamples/libDaisy//src/daisy_core.h ****     constexpr Pin() : port(PORTX), pin(255) {}
 286              		.loc 13 272 15 view .LVU65
 287              		.loc 13 272 15 is_stmt 0 view .LVU66
 288              	.LBE260:
 289              	.LBE259:
 290              	.LBE258:
 291              	.LBE257:
 292              	.LBE256:
 293              	.LBE255:
 294              	.LBE254:
 295              	.LBE253:
 296              	.LBB273:
 297              	.LBI273:
  18:../DaisyExamples/libDaisy//src/hid/gatein.h **** 
 298              		.loc 2 18 5 is_stmt 1 view .LVU67
 299              	.LBB274:
 300              	.LBB275:
 301              	.LBI275:
 302              		.loc 12 74 5 view .LVU68
 303              	.LBB276:
 304              	.LBB277:
 305              	.LBI277:
  68:../DaisyExamples/libDaisy//src/per/gpio.h ****         : pin(), mode(Mode::INPUT), pull(Pull::NOPULL), speed(Speed::LOW)
 306              		.loc 12 68 9 view .LVU69
 307              	.LBB278:
 308              	.LBB279:
 309              	.LBB280:
 310              	.LBI280:
 311              		.loc 13 272 15 view .LVU70
 312              		.loc 13 272 15 is_stmt 0 view .LVU71
 313              	.LBE280:
 314              	.LBE279:
 315              	.LBE278:
 316              	.LBE277:
 317              	.LBE276:
 318              	.LBE275:
 319              	.LBE274:
 320              	.LBE273:
 321              	.LBE301:
 322              	.LBE305:
 323              	.LBE309:
 324              	.LBE312:
 325              		.loc 8 61 1 view .LVU72
 326 0000 10B4     		push	{r4}
 327              		.cfi_def_cfa_offset 4
ARM GAS  /tmp/ccQGrZAX.s 			page 28


 328              		.cfi_offset 4, -4
 329              	.LBB313:
 330              	.LBB310:
 331              	.LBB306:
 332              	.LBB302:
 333              	.LBB293:
 334              	.LBB236:
 335              	.LBB237:
 336              		.loc 9 166 34 view .LVU73
 337 0002 0B48     		ldr	r0, .L21
 338 0004 0023     		movs	r3, #0
 339              	.LBE237:
 340              	.LBE236:
 341              	.LBE293:
  64:../DaisyExamples/libDaisy//src/daisy_patch_sm.h ****         ~DaisyPatchSM() {}
 342              		.loc 1 64 24 view .LVU74
 343 0006 4FF60B74 		movw	r4, #65291
 344              	.LBE302:
 345              	.LBE306:
  14:PassthruExample.cpp **** 
 346              		.loc 8 14 14 view .LVU75
 347 000a 0A4A     		ldr	r2, .L21+4
 348 000c 0A49     		ldr	r1, .L21+8
 349              	.LBB307:
 350              	.LBB303:
 351              	.LBB294:
 352              	.LBB249:
 353              	.LBB248:
 354              	.LBB246:
 355              	.LBB247:
 356              		.loc 10 82 33 view .LVU76
 357 000e 0362     		str	r3, [r0, #32]
 358              	.LBE247:
 359              	.LBE246:
 360              	.LBE248:
 361              	.LBE249:
 362              	.LBE294:
 363              	.LBB295:
 364              	.LBB251:
 365              	.LBB252:
 366              		.loc 11 84 33 view .LVU77
 367 0010 8362     		str	r3, [r0, #40]
 368              	.LBE252:
 369              	.LBE251:
 370              	.LBE295:
 371              	.LBB296:
 372              	.LBB271:
 373              	.LBB269:
 374              	.LBB267:
 375              	.LBB265:
 376              	.LBB263:
 377              	.LBB261:
  69:../DaisyExamples/libDaisy//src/per/gpio.h ****         {
 378              		.loc 12 69 73 view .LVU78
 379 0012 C0E96C43 		strd	r4, r3, [r0, #432]
 380              	.LBE261:
 381              	.LBE263:
ARM GAS  /tmp/ccQGrZAX.s 			page 29


 382              	.LBE265:
 383              	.LBE267:
 384              	.LBE269:
 385              	.LBE271:
 386              	.LBE296:
 387              	.LBB297:
 388              	.LBB291:
 389              	.LBB289:
 390              	.LBB287:
 391              	.LBB285:
 392              	.LBB283:
 393              	.LBB281:
 394 0016 C0E97243 		strd	r4, r3, [r0, #456]
 395              	.LBE281:
 396              	.LBE283:
 397              	.LBE285:
 398              	.LBE287:
 399              	.LBE289:
 400              	.LBE291:
 401              	.LBE297:
 402              	.LBB298:
 403              	.LBB239:
 404              	.LBB240:
  95:../DaisyExamples/libDaisy//src/hid/audio.h ****     ~AudioHandle() {}
 405              		.loc 6 95 35 view .LVU79
 406 001a C0E90333 		strd	r3, r3, [r0, #12]
 407              	.LBE240:
 408              	.LBE239:
 409              	.LBE298:
 410              	.LBE303:
 411              	.LBE307:
 412              	.LBE310:
 413              	.LBE313:
 414              		.loc 8 61 1 view .LVU80
 415 001e 5DF8044B 		ldr	r4, [sp], #4
 416              		.cfi_restore 4
 417              		.cfi_def_cfa_offset 0
 418              	.LBB314:
 419              	.LBB311:
 420              	.LBB308:
 421              	.LBB304:
 422              	.LBB299:
 423              	.LBB272:
 424              	.LBB270:
 425              	.LBB268:
 426              	.LBB266:
 427              	.LBB264:
 428              	.LBB262:
  69:../DaisyExamples/libDaisy//src/per/gpio.h ****         {
 429              		.loc 12 69 73 view .LVU81
 430 0022 C0E96E33 		strd	r3, r3, [r0, #440]
 431              	.LBE262:
 432              	.LBE264:
 433              	.LBE266:
 434              	.LBE268:
 435              	.LBE270:
 436              	.LBE272:
ARM GAS  /tmp/ccQGrZAX.s 			page 30


 437              	.LBE299:
 438              	.LBB300:
 439              	.LBB292:
 440              	.LBB290:
 441              	.LBB288:
 442              	.LBB286:
 443              	.LBB284:
 444              	.LBB282:
 445 0026 C0E97433 		strd	r3, r3, [r0, #464]
 446              	.LVL8:
  69:../DaisyExamples/libDaisy//src/per/gpio.h ****         {
 447              		.loc 12 69 73 view .LVU82
 448              	.LBE282:
 449              	.LBE284:
 450              	.LBE286:
 451              	.LBE288:
 452              	.LBE290:
 453              	.LBE292:
 454              	.LBE300:
 455              	.LBE304:
 456              	.LBE308:
  14:PassthruExample.cpp **** 
 457              		.loc 8 14 14 view .LVU83
 458 002a FFF7FEBF 		b	__aeabi_atexit
 459              	.LVL9:
 460              	.L22:
 461 002e 00BF     		.align	2
 462              	.L21:
 463 0030 00000000 		.word	.LANCHOR0
 464 0034 00000000 		.word	__dso_handle
 465 0038 00000000 		.word	_ZN5daisy8patch_sm12DaisyPatchSMD1Ev
 466              	.LBE311:
 467              	.LBE314:
 468              		.cfi_endproc
 469              	.LFE5250:
 471              		.section	.init_array,"aw",%init_array
 472              		.align	2
 473 0000 00000000 		.word	_GLOBAL__sub_I_patch(target1)
 474              		.global	patch
 475              		.section	.bss.patch,"aw",%nobits
 476              		.align	2
 477              		.set	.LANCHOR0,. + 0
 480              	patch:
 481 0000 00000000 		.space	496
 481      00000000 
 481      00000000 
 481      00000000 
 481      00000000 
 482              		.text
 483              	.Letext0:
 484              		.file 14 "/home/ck84/src/gcc-arm-none-eabi-10.3-2021.10/arm-none-eabi/include/machine/_default_typ
 485              		.file 15 "/home/ck84/src/gcc-arm-none-eabi-10.3-2021.10/arm-none-eabi/include/sys/_stdint.h"
 486              		.file 16 "/home/ck84/src/gcc-arm-none-eabi-10.3-2021.10/arm-none-eabi/include/stdint.h"
 487              		.file 17 "/home/ck84/src/gcc-arm-none-eabi-10.3-2021.10/lib/gcc/arm-none-eabi/10.3.1/include/stdde
 488              		.file 18 "/home/ck84/src/gcc-arm-none-eabi-10.3-2021.10/arm-none-eabi/include/c++/10.3.1/cmath"
 489              		.file 19 "/home/ck84/src/gcc-arm-none-eabi-10.3-2021.10/arm-none-eabi/include/c++/10.3.1/bits/std_
 490              		.file 20 "/home/ck84/src/gcc-arm-none-eabi-10.3-2021.10/arm-none-eabi/include/c++/10.3.1/cstdlib"
ARM GAS  /tmp/ccQGrZAX.s 			page 31


 491              		.file 21 "/home/ck84/src/gcc-arm-none-eabi-10.3-2021.10/arm-none-eabi/include/c++/10.3.1/cstdint"
 492              		.file 22 "/home/ck84/src/gcc-arm-none-eabi-10.3-2021.10/arm-none-eabi/include/c++/10.3.1/type_trai
 493              		.file 23 "/home/ck84/src/gcc-arm-none-eabi-10.3-2021.10/arm-none-eabi/include/c++/10.3.1/debug/deb
 494              		.file 24 "/home/ck84/src/gcc-arm-none-eabi-10.3-2021.10/arm-none-eabi/include/c++/10.3.1/arm-none-
 495              		.file 25 "/home/ck84/src/gcc-arm-none-eabi-10.3-2021.10/arm-none-eabi/include/c++/10.3.1/bits/algo
 496              		.file 26 "/home/ck84/src/gcc-arm-none-eabi-10.3-2021.10/arm-none-eabi/include/c++/10.3.1/bits/stl_
 497              		.file 27 "/home/ck84/src/gcc-arm-none-eabi-10.3-2021.10/arm-none-eabi/include/c++/10.3.1/bits/exce
 498              		.file 28 "/home/ck84/src/gcc-arm-none-eabi-10.3-2021.10/arm-none-eabi/include/c++/10.3.1/cstdarg"
 499              		.file 29 "/home/ck84/src/gcc-arm-none-eabi-10.3-2021.10/arm-none-eabi/include/c++/10.3.1/cstdio"
 500              		.file 30 "/home/ck84/src/gcc-arm-none-eabi-10.3-2021.10/arm-none-eabi/include/c++/10.3.1/cstring"
 501              		.file 31 "/home/ck84/src/gcc-arm-none-eabi-10.3-2021.10/arm-none-eabi/include/c++/10.3.1/cwchar"
 502              		.file 32 "/home/ck84/src/gcc-arm-none-eabi-10.3-2021.10/arm-none-eabi/include/c++/10.3.1/clocale"
 503              		.file 33 "/home/ck84/src/gcc-arm-none-eabi-10.3-2021.10/arm-none-eabi/include/c++/10.3.1/bits/basi
 504              		.file 34 "/home/ck84/src/gcc-arm-none-eabi-10.3-2021.10/arm-none-eabi/include/c++/10.3.1/bits/stl_
 505              		.file 35 "/home/ck84/src/gcc-arm-none-eabi-10.3-2021.10/arm-none-eabi/include/c++/10.3.1/bits/pred
 506              		.file 36 "/home/ck84/src/gcc-arm-none-eabi-10.3-2021.10/arm-none-eabi/include/sys/_types.h"
 507              		.file 37 "/home/ck84/src/gcc-arm-none-eabi-10.3-2021.10/arm-none-eabi/include/sys/reent.h"
 508              		.file 38 "/home/ck84/src/gcc-arm-none-eabi-10.3-2021.10/arm-none-eabi/include/sys/lock.h"
 509              		.file 39 "/home/ck84/src/gcc-arm-none-eabi-10.3-2021.10/arm-none-eabi/include/math.h"
 510              		.file 40 "/home/ck84/src/gcc-arm-none-eabi-10.3-2021.10/arm-none-eabi/include/stdlib.h"
 511              		.file 41 "/home/ck84/src/gcc-arm-none-eabi-10.3-2021.10/arm-none-eabi/include/c++/10.3.1/math.h"
 512              		.file 42 "/home/ck84/src/gcc-arm-none-eabi-10.3-2021.10/arm-none-eabi/include/c++/10.3.1/stdlib.h"
 513              		.file 43 "../DaisyExamples/libDaisy//src/per/tim.h"
 514              		.file 44 "../DaisyExamples/libDaisy//src/per/sai.h"
 515              		.file 45 "../DaisyExamples/libDaisy//src/hid/ctrl.h"
 516              		.file 46 "../DaisyExamples/libDaisy//src/util/wav_format.h"
 517              		.file 47 "../DaisyExamples/libDaisy//src/dev/max11300.h"
 518              		.file 48 "../DaisyExamples/libDaisy//src/dev/sdram.h"
 519              		.file 49 "/home/ck84/src/gcc-arm-none-eabi-10.3-2021.10/lib/gcc/arm-none-eabi/10.3.1/include/stdar
 520              		.file 50 "/home/ck84/src/gcc-arm-none-eabi-10.3-2021.10/arm-none-eabi/include/stdio.h"
 521              		.file 51 "/home/ck84/src/gcc-arm-none-eabi-10.3-2021.10/arm-none-eabi/include/string.h"
 522              		.file 52 "../DaisyExamples/DaisySP//Source/Control/adenv.h"
 523              		.file 53 "../DaisyExamples/DaisySP//Source/Utility/dsp.h"
 524              		.file 54 "/home/ck84/src/gcc-arm-none-eabi-10.3-2021.10/arm-none-eabi/include/wchar.h"
 525              		.file 55 "/home/ck84/src/gcc-arm-none-eabi-10.3-2021.10/arm-none-eabi/include/locale.h"
 526              		.file 56 "<built-in>"
 527              		.file 57 "../DaisyExamples/libDaisy//src/dev/sr_595.h"
ARM GAS  /tmp/ccQGrZAX.s 			page 32

